---
triple:          'arm64-apple-darwin'
binary-path:     'bin/mps_dbg'
relocations:
  - { offset: 0x6F8F, size: 0x8, addend: 0x0, symName: __ZNSt3__124__put_character_sequenceB8ne180100IcNS_11char_traitsIcEEEERNS_13basic_ostreamIT_T0_EES7_PKS4_m, symObjAddr: 0x558C, symBinAddr: 0x100009244, symSize: 0x1F4 }
  - { offset: 0x8016, size: 0x8, addend: 0x0, symName: __ZNSt3__1lsB8ne180100INS_11char_traitsIcEEEERNS_13basic_ostreamIcT_EES6_PKc, symObjAddr: 0x94C, symBinAddr: 0x100004604, symSize: 0x48 }
  - { offset: 0x805C, size: 0x8, addend: 0x0, symName: __ZNSt3__14endlB8ne180100IcNS_11char_traitsIcEEEERNS_13basic_ostreamIT_T0_EES7_, symObjAddr: 0xA10, symBinAddr: 0x1000046C8, symSize: 0x58 }
  - { offset: 0x8F57, size: 0x8, addend: 0x0, symName: __ZNSt3__1neB8ne180100IP5ChordEEbRKNS_11__wrap_iterIT_EES7_, symObjAddr: 0x18BC, symBinAddr: 0x100005574, symSize: 0x34 }
  - { offset: 0x8F9A, size: 0x8, addend: 0x0, symName: __ZNSt3__122__make_exception_guardB8ne180100INS_6vectorI5ChordNS_9allocatorIS2_EEE16__destroy_vectorEEENS_28__exception_guard_exceptionsIT_EES8_, symObjAddr: 0x1E8C, symBinAddr: 0x100005B44, symSize: 0x40 }
  - { offset: 0x8FCF, size: 0x8, addend: 0x0, symName: __ZNSt3__119__allocate_at_leastB8ne180100INS_9allocatorI5ChordEEEENS_19__allocation_resultINS_16allocator_traitsIT_E7pointerEEERS6_m, symObjAddr: 0x2190, symBinAddr: 0x100005E48, symSize: 0x40 }
  - { offset: 0x9012, size: 0x8, addend: 0x0, symName: __ZNSt3__13minB8ne180100ImEERKT_S3_S3_, symObjAddr: 0x2234, symBinAddr: 0x100005EEC, symSize: 0x2C }
  - { offset: 0x9256, size: 0x8, addend: 0x0, symName: __ZNSt3__13minB8ne180100ImNS_6__lessIvvEEEERKT_S5_S5_T0_, symObjAddr: 0x2298, symBinAddr: 0x100005F50, symSize: 0x54 }
  - { offset: 0x92F5, size: 0x8, addend: 0x0, symName: __ZNSt3__120__throw_length_errorB8ne180100EPKc, symObjAddr: 0x233C, symBinAddr: 0x100005FF4, symSize: 0x64 }
  - { offset: 0x931D, size: 0x8, addend: 0x0, symName: __ZNSt3__130__libcpp_is_constant_evaluatedB8ne180100Ev, symObjAddr: 0x24D0, symBinAddr: 0x100006188, symSize: 0xC }
  - { offset: 0x933A, size: 0x8, addend: 0x0, symName: __ZNSt3__117__libcpp_allocateB8ne180100Emm, symObjAddr: 0x24DC, symBinAddr: 0x100006194, symSize: 0x28 }
  - { offset: 0x9377, size: 0x8, addend: 0x0, symName: __ZNSt3__121__libcpp_operator_newB8ne180100IJmEEEPvDpT_, symObjAddr: 0x2504, symBinAddr: 0x1000061BC, symSize: 0x24 }
  - { offset: 0x93B0, size: 0x8, addend: 0x0, symName: __ZNSt3__130__uninitialized_allocator_copyB8ne180100INS_9allocatorI5ChordEEPS2_S4_S4_EET2_RT_T0_T1_S5_, symObjAddr: 0x25D4, symBinAddr: 0x10000628C, symSize: 0x80 }
  - { offset: 0x944D, size: 0x8, addend: 0x0, symName: __ZNSt3__114__unwrap_rangeB8ne180100IP5ChordS2_EENS_4pairIT0_S4_EET_S6_, symObjAddr: 0x26C4, symBinAddr: 0x10000637C, symSize: 0x60 }
  - { offset: 0x9499, size: 0x8, addend: 0x0, symName: __ZNSt3__135__uninitialized_allocator_copy_implB8ne180100INS_9allocatorI5ChordEEPS2_S4_S4_EET2_RT_T0_T1_S5_, symObjAddr: 0x2724, symBinAddr: 0x1000063DC, symSize: 0xFC }
  - { offset: 0x9537, size: 0x8, addend: 0x0, symName: __ZNSt3__113__unwrap_iterB8ne180100IP5ChordNS_18__unwrap_iter_implIS2_Lb1EEELi0EEEDTclsrT0_8__unwrapclsr3stdE7declvalIT_EEEES6_, symObjAddr: 0x2820, symBinAddr: 0x1000064D8, symSize: 0x24 }
  - { offset: 0x957B, size: 0x8, addend: 0x0, symName: __ZNSt3__113__rewrap_iterB8ne180100IP5ChordS2_NS_18__unwrap_iter_implIS2_Lb1EEEEET_S5_T0_, symObjAddr: 0x2844, symBinAddr: 0x1000064FC, symSize: 0x50 }
  - { offset: 0x95D0, size: 0x8, addend: 0x0, symName: __ZNSt3__19make_pairB8ne180100IP5ChordS2_EENS_4pairINS_18__unwrap_ref_decayIT_E4typeENS4_IT0_E4typeEEEOS5_OS8_, symObjAddr: 0x2894, symBinAddr: 0x10000654C, symSize: 0x38 }
  - { offset: 0x96CC, size: 0x8, addend: 0x0, symName: __ZNSt3__122__make_exception_guardB8ne180100INS_29_AllocatorDestroyRangeReverseINS_9allocatorI5ChordEEPS3_EEEENS_28__exception_guard_exceptionsIT_EES8_, symObjAddr: 0x293C, symBinAddr: 0x1000065F4, symSize: 0x4C }
  - { offset: 0x9702, size: 0x8, addend: 0x0, symName: __ZNSt3__112__to_addressB8ne180100I5ChordEEPT_S3_, symObjAddr: 0x2A00, symBinAddr: 0x1000066B8, symSize: 0x14 }
  - { offset: 0x9737, size: 0x8, addend: 0x0, symName: __ZNSt3__119__allocator_destroyB8ne180100INS_9allocatorI5ChordEENS_16reverse_iteratorIPS2_EES6_EEvRT_T0_T1_, symObjAddr: 0x2BD0, symBinAddr: 0x100006888, symSize: 0x70 }
  - { offset: 0x979A, size: 0x8, addend: 0x0, symName: __ZNSt3__1neB8ne180100IP5ChordS2_EEbRKNS_16reverse_iteratorIT_EERKNS3_IT0_EE, symObjAddr: 0x2C74, symBinAddr: 0x10000692C, symSize: 0x48 }
  - { offset: 0x97E6, size: 0x8, addend: 0x0, symName: __ZNSt3__112__to_addressB8ne180100INS_16reverse_iteratorIP5ChordEEvEEu7__decayIDTclsr19__to_address_helperIT_EE6__callclsr3stdE7declvalIRKS5_EEEEES7_, symObjAddr: 0x2CE8, symBinAddr: 0x1000069A0, symSize: 0x24 }
  - { offset: 0x9898, size: 0x8, addend: 0x0, symName: __ZNSt3__119__libcpp_deallocateB8ne180100EPvmm, symObjAddr: 0x3140, symBinAddr: 0x100006DF8, symSize: 0x30 }
  - { offset: 0x98E0, size: 0x8, addend: 0x0, symName: __ZNSt3__127__do_deallocate_handle_sizeB8ne180100IJEEEvPvmDpT_, symObjAddr: 0x3170, symBinAddr: 0x100006E28, symSize: 0x28 }
  - { offset: 0x991E, size: 0x8, addend: 0x0, symName: __ZNSt3__124__libcpp_operator_deleteB8ne180100IJPvEEEvDpT_, symObjAddr: 0x3198, symBinAddr: 0x100006E50, symSize: 0x24 }
  - { offset: 0x9953, size: 0x8, addend: 0x0, symName: __ZNSt3__122__make_exception_guardB8ne180100INS_6vectorIiNS_9allocatorIiEEE16__destroy_vectorEEENS_28__exception_guard_exceptionsIT_EES7_, symObjAddr: 0x333C, symBinAddr: 0x100006FF4, symSize: 0x40 }
  - { offset: 0x9988, size: 0x8, addend: 0x0, symName: __ZNSt3__119__allocate_at_leastB8ne180100INS_9allocatorIiEEEENS_19__allocation_resultINS_16allocator_traitsIT_E7pointerEEERS5_m, symObjAddr: 0x374C, symBinAddr: 0x100007404, symSize: 0x40 }
  - { offset: 0x99CB, size: 0x8, addend: 0x0, symName: __ZNSt3__112__to_addressB8ne180100IiEEPT_S2_, symObjAddr: 0x39EC, symBinAddr: 0x1000076A4, symSize: 0x14 }
  - { offset: 0x9A00, size: 0x8, addend: 0x0, symName: __ZNSt3__122__make_exception_guardB8ne180100INS_6vectorINS1_IiNS_9allocatorIiEEEENS2_IS4_EEE16__destroy_vectorEEENS_28__exception_guard_exceptionsIT_EES9_, symObjAddr: 0x3F48, symBinAddr: 0x100007C00, symSize: 0x40 }
  - { offset: 0x9A35, size: 0x8, addend: 0x0, symName: __ZNSt3__119__allocate_at_leastB8ne180100INS_9allocatorINS_6vectorIiNS1_IiEEEEEEEENS_19__allocation_resultINS_16allocator_traitsIT_E7pointerEEERS8_m, symObjAddr: 0x4360, symBinAddr: 0x100008018, symSize: 0x40 }
  - { offset: 0x9A78, size: 0x8, addend: 0x0, symName: __ZNSt3__112__to_addressB8ne180100INS_6vectorIiNS_9allocatorIiEEEEEEPT_S6_, symObjAddr: 0x460C, symBinAddr: 0x1000082C4, symSize: 0x14 }
  - { offset: 0x9AAD, size: 0x8, addend: 0x0, symName: __ZNSt3__130__uninitialized_allocator_copyB8ne180100INS_9allocatorIiEEPiS3_S3_EET2_RT_T0_T1_S4_, symObjAddr: 0x49B4, symBinAddr: 0x10000866C, symSize: 0x80 }
  - { offset: 0x9B4A, size: 0x8, addend: 0x0, symName: __ZNSt3__114__unwrap_rangeB8ne180100IPiS1_EENS_4pairIT0_S3_EET_S5_, symObjAddr: 0x4A34, symBinAddr: 0x1000086EC, symSize: 0x60 }
  - { offset: 0x9B96, size: 0x8, addend: 0x0, symName: __ZNSt3__135__uninitialized_allocator_copy_implB8ne180100INS_9allocatorIiEEPiS3_S3_EET2_RT_T0_T1_S4_, symObjAddr: 0x4A94, symBinAddr: 0x10000874C, symSize: 0xFC }
  - { offset: 0x9C34, size: 0x8, addend: 0x0, symName: __ZNSt3__113__unwrap_iterB8ne180100IPiNS_18__unwrap_iter_implIS1_Lb1EEELi0EEEDTclsrT0_8__unwrapclsr3stdE7declvalIT_EEEES5_, symObjAddr: 0x4B90, symBinAddr: 0x100008848, symSize: 0x24 }
  - { offset: 0x9C78, size: 0x8, addend: 0x0, symName: __ZNSt3__113__rewrap_iterB8ne180100IPiS1_NS_18__unwrap_iter_implIS1_Lb1EEEEET_S4_T0_, symObjAddr: 0x4BB4, symBinAddr: 0x10000886C, symSize: 0x50 }
  - { offset: 0x9CCD, size: 0x8, addend: 0x0, symName: __ZNSt3__19make_pairB8ne180100IPiS1_EENS_4pairINS_18__unwrap_ref_decayIT_E4typeENS3_IT0_E4typeEEEOS4_OS7_, symObjAddr: 0x4C04, symBinAddr: 0x1000088BC, symSize: 0x38 }
  - { offset: 0x9DC9, size: 0x8, addend: 0x0, symName: __ZNSt3__122__make_exception_guardB8ne180100INS_29_AllocatorDestroyRangeReverseINS_9allocatorIiEEPiEEEENS_28__exception_guard_exceptionsIT_EES7_, symObjAddr: 0x4CAC, symBinAddr: 0x100008964, symSize: 0x4C }
  - { offset: 0x9DFF, size: 0x8, addend: 0x0, symName: __ZNSt3__119__allocator_destroyB8ne180100INS_9allocatorIiEENS_16reverse_iteratorIPiEES5_EEvRT_T0_T1_, symObjAddr: 0x4F2C, symBinAddr: 0x100008BE4, symSize: 0x70 }
  - { offset: 0x9E62, size: 0x8, addend: 0x0, symName: __ZNSt3__1neB8ne180100IPiS1_EEbRKNS_16reverse_iteratorIT_EERKNS2_IT0_EE, symObjAddr: 0x4FD0, symBinAddr: 0x100008C88, symSize: 0x48 }
  - { offset: 0x9EAE, size: 0x8, addend: 0x0, symName: __ZNSt3__112__to_addressB8ne180100INS_16reverse_iteratorIPiEEvEEu7__decayIDTclsr19__to_address_helperIT_EE6__callclsr3stdE7declvalIRKS4_EEEEES6_, symObjAddr: 0x5018, symBinAddr: 0x100008CD0, symSize: 0x24 }
  - { offset: 0x9F60, size: 0x8, addend: 0x0, symName: __ZNSt3__116__pad_and_outputB8ne180100IcNS_11char_traitsIcEEEENS_19ostreambuf_iteratorIT_T0_EES6_PKS4_S8_S8_RNS_8ios_baseES4_, symObjAddr: 0x57E4, symBinAddr: 0x10000949C, symSize: 0x248 }
  - { offset: 0xA02F, size: 0x8, addend: 0x0, symName: __ZNSt3__112__to_addressB8ne180100IKcEEPT_S3_, symObjAddr: 0x5D54, symBinAddr: 0x100009A0C, symSize: 0x14 }
  - { offset: 0xA097, size: 0x8, addend: 0x0, symName: __ZNSt3__19use_facetB8ne180100INS_5ctypeIcEEEERKT_RKNS_6localeE, symObjAddr: 0x604C, symBinAddr: 0x100009D04, symSize: 0x2C }
  - { offset: 0xA564, size: 0x8, addend: 0x0, symName: __ZNSt3__118__constexpr_strlenB8ne180100EPKc, symObjAddr: 0x60E4, symBinAddr: 0x100009D9C, symSize: 0x24 }
  - { offset: 0xA590, size: 0x8, addend: 0x0, symName: __ZNSt3__13maxB8ne180100ImEERKT_S3_S3_, symObjAddr: 0x6804, symBinAddr: 0x10000A4BC, symSize: 0x2C }
  - { offset: 0xA5D3, size: 0x8, addend: 0x0, symName: __ZNSt3__13maxB8ne180100ImNS_6__lessIvvEEEERKT_S5_S5_T0_, symObjAddr: 0x6830, symBinAddr: 0x10000A4E8, symSize: 0x54 }
  - { offset: 0xA62D, size: 0x8, addend: 0x0, symName: __ZNSt3__142__uninitialized_allocator_move_if_noexceptB8ne180100INS_9allocatorI5ChordEENS_16reverse_iteratorIPS2_EES6_S2_vEET1_RT_T0_SA_S7_, symObjAddr: 0x6AB0, symBinAddr: 0x10000A768, symSize: 0xE8 }
  - { offset: 0xA6AA, size: 0x8, addend: 0x0, symName: __ZNSt3__14swapB8ne180100IP5ChordEEvRT_S4_, symObjAddr: 0x6B98, symBinAddr: 0x10000A850, symSize: 0x3C }
  - { offset: 0xA6FB, size: 0x8, addend: 0x0, symName: __ZNSt3__114__construct_atB8ne180100I5ChordJS1_EPS1_EEPT_S4_DpOT0_, symObjAddr: 0x6BD4, symBinAddr: 0x10000A88C, symSize: 0x24 }
  - { offset: 0xA74E, size: 0x8, addend: 0x0, symName: __ZNSt3__14moveB8ne180100INS_16reverse_iteratorIP5ChordEES4_EET0_T_S6_S5_, symObjAddr: 0x6BF8, symBinAddr: 0x10000A8B0, symSize: 0x78 }
  - { offset: 0xA7A8, size: 0x8, addend: 0x0, symName: __ZNSt3__16__moveB8ne180100INS_17_ClassicAlgPolicyENS_16reverse_iteratorIP5ChordEES5_S5_EENS_4pairIT0_T2_EES7_T1_S8_, symObjAddr: 0x6C70, symBinAddr: 0x10000A928, symSize: 0x64 }
  - { offset: 0xA814, size: 0x8, addend: 0x0, symName: __ZNSt3__123__dispatch_copy_or_moveB8ne180100INS_17_ClassicAlgPolicyENS_11__move_loopIS1_EENS_14__move_trivialENS_16reverse_iteratorIP5ChordEES8_S8_EENS_4pairIT2_T4_EESA_T3_SB_, symObjAddr: 0x6CD4, symBinAddr: 0x10000A98C, symSize: 0x64 }
  - { offset: 0xA892, size: 0x8, addend: 0x0, symName: __ZNSt3__121__unwrap_and_dispatchB8ne180100INS_10__overloadINS_11__move_loopINS_17_ClassicAlgPolicyEEENS_14__move_trivialEEENS_16reverse_iteratorIP5ChordEESA_SA_Li0EEENS_4pairIT0_T2_EESC_T1_SD_, symObjAddr: 0x6D38, symBinAddr: 0x10000A9F0, symSize: 0x12C }
  - { offset: 0xA922, size: 0x8, addend: 0x0, symName: __ZNSt3__114__unwrap_rangeB8ne180100INS_16reverse_iteratorIP5ChordEES4_EENS_4pairIT0_S6_EET_S8_, symObjAddr: 0x6E64, symBinAddr: 0x10000AB1C, symSize: 0x84 }
  - { offset: 0xAA76, size: 0x8, addend: 0x0, symName: __ZNSt3__113__unwrap_iterB8ne180100INS_16reverse_iteratorIP5ChordEENS_18__unwrap_iter_implIS4_Lb0EEELi0EEEDTclsrT0_8__unwrapclsr3stdE7declvalIT_EEEES8_, symObjAddr: 0x6F88, symBinAddr: 0x10000AC40, symSize: 0x44 }
  - { offset: 0xAABA, size: 0x8, addend: 0x0, symName: __ZNSt3__19make_pairB8ne180100INS_16reverse_iteratorIP5ChordEES4_EENS_4pairINS_18__unwrap_ref_decayIT_E4typeENS6_IT0_E4typeEEEOS7_OSA_, symObjAddr: 0x6FCC, symBinAddr: 0x10000AC84, symSize: 0x38 }
  - { offset: 0xAB09, size: 0x8, addend: 0x0, symName: __ZNSt3__114__rewrap_rangeB8ne180100INS_16reverse_iteratorIP5ChordEES4_EET_S5_T0_, symObjAddr: 0x7004, symBinAddr: 0x10000ACBC, symSize: 0x5C }
  - { offset: 0xAB55, size: 0x8, addend: 0x0, symName: __ZNSt3__113__rewrap_iterB8ne180100INS_16reverse_iteratorIP5ChordEES4_NS_18__unwrap_iter_implIS4_Lb0EEEEET_S7_T0_, symObjAddr: 0x7060, symBinAddr: 0x10000AD18, symSize: 0x88 }
  - { offset: 0xAC54, size: 0x8, addend: 0x0, symName: __ZNSt3__1eqB8ne180100IP5ChordEEbRKNS_11__wrap_iterIT_EES7_, symObjAddr: 0x744C, symBinAddr: 0x10000B104, symSize: 0x48 }
  - { offset: 0xBA45, size: 0x8, addend: 0x0, symName: __ZSt28__throw_bad_array_new_lengthB8ne180100v, symObjAddr: 0x249C, symBinAddr: 0x100006154, symSize: 0x34 }
  - { offset: 0xC2B6, size: 0x8, addend: 0x0, symName: __ZNSt3__16vectorI5ChordNS_9allocatorIS1_EEE26__swap_out_circular_bufferERNS_14__split_bufferIS1_RS3_EE, symObjAddr: 0x66C8, symBinAddr: 0x10000A380, symSize: 0x110 }
  - { offset: 0xC3D3, size: 0x8, addend: 0x0, symName: __ZN19MaximumPlanarSubsetC2EiNSt3__16vectorI5ChordNS0_9allocatorIS2_EEEE, symObjAddr: 0x0, symBinAddr: 0x100003CB8, symSize: 0x1E0 }
  - { offset: 0xC41A, size: 0x8, addend: 0x0, symName: __ZNSt3__16vectorI5ChordNS_9allocatorIS1_EEEC1ERKS4_, symObjAddr: 0x1E0, symBinAddr: 0x100003E98, symSize: 0x34 }
  - { offset: 0xC453, size: 0x8, addend: 0x0, symName: __ZNSt3__16vectorIiNS_9allocatorIiEEEC1EmRKi, symObjAddr: 0x214, symBinAddr: 0x100003ECC, symSize: 0x3C }
  - { offset: 0xC49B, size: 0x8, addend: 0x0, symName: __ZNSt3__16vectorINS0_IiNS_9allocatorIiEEEENS1_IS3_EEEC1EmRKS3_, symObjAddr: 0x250, symBinAddr: 0x100003F08, symSize: 0x3C }
  - { offset: 0xC4E3, size: 0x8, addend: 0x0, symName: __ZNSt3__16vectorIiNS_9allocatorIiEEED1B8ne180100Ev, symObjAddr: 0x28C, symBinAddr: 0x100003F44, symSize: 0x2C }
  - { offset: 0xC50B, size: 0x8, addend: 0x0, symName: __ZN19MaximumPlanarSubset12calculateMPSEv, symObjAddr: 0x2C8, symBinAddr: 0x100003F80, symSize: 0x4E8 }
  - { offset: 0xC638, size: 0x8, addend: 0x0, symName: __ZNSt3__16vectorINS0_IiNS_9allocatorIiEEEENS1_IS3_EEED1B8ne180100Ev, symObjAddr: 0x7B0, symBinAddr: 0x100004468, symSize: 0x2C }
  - { offset: 0xC660, size: 0x8, addend: 0x0, symName: __ZNSt3__16vectorI5ChordNS_9allocatorIS1_EEED1B8ne180100Ev, symObjAddr: 0x7DC, symBinAddr: 0x100004494, symSize: 0x2C }
  - { offset: 0xC688, size: 0x8, addend: 0x0, symName: __ZN19MaximumPlanarSubsetC1EiNSt3__16vectorI5ChordNS0_9allocatorIS2_EEEE, symObjAddr: 0x808, symBinAddr: 0x1000044C0, symSize: 0x3C }
  - { offset: 0xC6CF, size: 0x8, addend: 0x0, symName: __ZN19MaximumPlanarSubset11printResultERNSt3__113basic_ostreamIcNS0_11char_traitsIcEEEE, symObjAddr: 0x844, symBinAddr: 0x1000044FC, symSize: 0x108 }
  - { offset: 0xC704, size: 0x8, addend: 0x0, symName: __ZNSt3__16vectorINS0_IiNS_9allocatorIiEEEENS1_IS3_EEEixB8ne180100Em, symObjAddr: 0x994, symBinAddr: 0x10000464C, symSize: 0x2C }
  - { offset: 0xC73A, size: 0x8, addend: 0x0, symName: __ZNSt3__16vectorIiNS_9allocatorIiEEEixB8ne180100Em, symObjAddr: 0x9C0, symBinAddr: 0x100004678, symSize: 0x24 }
  - { offset: 0xC770, size: 0x8, addend: 0x0, symName: __ZNSt3__113basic_ostreamIcNS_11char_traitsIcEEElsB8ne180100EPFRS3_S4_E, symObjAddr: 0x9E4, symBinAddr: 0x10000469C, symSize: 0x2C }
  - { offset: 0xC7A2, size: 0x8, addend: 0x0, symName: __ZN19MaximumPlanarSubset13traceSolutionEiiRNSt3__113basic_ostreamIcNS0_11char_traitsIcEEEE, symObjAddr: 0xA68, symBinAddr: 0x100004720, symSize: 0x26C }
  - { offset: 0xC852, size: 0x8, addend: 0x0, symName: __ZN19MaximumPlanarSubset5solveEPKcS1_, symObjAddr: 0xCD4, symBinAddr: 0x10000498C, symSize: 0x5B4 }
  - { offset: 0xCC54, size: 0x8, addend: 0x0, symName: __ZNSt3__114basic_ifstreamIcNS_11char_traitsIcEEEC1EPKcj, symObjAddr: 0x1288, symBinAddr: 0x100004F40, symSize: 0x174 }
  - { offset: 0xCC9D, size: 0x8, addend: 0x0, symName: __ZNKSt3__19basic_iosIcNS_11char_traitsIcEEEntB8ne180100Ev, symObjAddr: 0x13FC, symBinAddr: 0x1000050B4, symSize: 0x28 }
  - { offset: 0xCCDA, size: 0x8, addend: 0x0, symName: __ZNSt3__114basic_ofstreamIcNS_11char_traitsIcEEEC1EPKcj, symObjAddr: 0x1424, symBinAddr: 0x1000050DC, symSize: 0x174 }
  - { offset: 0xCD23, size: 0x8, addend: 0x0, symName: __ZNKSt3__19basic_iosIcNS_11char_traitsIcEEEcvPvB8ne180100Ev, symObjAddr: 0x1598, symBinAddr: 0x100005250, symSize: 0x4C }
  - { offset: 0xCD47, size: 0x8, addend: 0x0, symName: __ZNSt3__16vectorI5ChordNS_9allocatorIS1_EEEC1B8ne180100Ev, symObjAddr: 0x15E4, symBinAddr: 0x10000529C, symSize: 0x2C }
  - { offset: 0xCD6F, size: 0x8, addend: 0x0, symName: __ZNSt3__16vectorI5ChordNS_9allocatorIS1_EEE9push_backB8ne180100ERKS1_, symObjAddr: 0x1610, symBinAddr: 0x1000052C8, symSize: 0x90 }
  - { offset: 0xCDB3, size: 0x8, addend: 0x0, symName: __ZN19MaximumPlanarSubsetD1Ev, symObjAddr: 0x16A0, symBinAddr: 0x100005358, symSize: 0x2C }
  - { offset: 0xCDDD, size: 0x8, addend: 0x0, symName: __ZNSt3__114basic_ifstreamIcNS_11char_traitsIcEEE5closeEv, symObjAddr: 0x16CC, symBinAddr: 0x100005384, symSize: 0x58 }
  - { offset: 0xCE03, size: 0x8, addend: 0x0, symName: __ZNSt3__114basic_ofstreamIcNS_11char_traitsIcEEE5closeEv, symObjAddr: 0x1724, symBinAddr: 0x1000053DC, symSize: 0x58 }
  - { offset: 0xCE2F, size: 0x8, addend: 0x0, symName: __ZNSt3__114basic_ofstreamIcNS_11char_traitsIcEEED1Ev, symObjAddr: 0x177C, symBinAddr: 0x100005434, symSize: 0x70 }
  - { offset: 0xCE60, size: 0x8, addend: 0x0, symName: __ZNSt3__114basic_ifstreamIcNS_11char_traitsIcEEED1Ev, symObjAddr: 0x17EC, symBinAddr: 0x1000054A4, symSize: 0x70 }
  - { offset: 0xCE8B, size: 0x8, addend: 0x0, symName: __ZNSt3__16vectorI5ChordNS_9allocatorIS1_EEE5beginB8ne180100Ev, symObjAddr: 0x185C, symBinAddr: 0x100005514, symSize: 0x30 }
  - { offset: 0xCEB1, size: 0x8, addend: 0x0, symName: __ZNSt3__16vectorI5ChordNS_9allocatorIS1_EEE3endB8ne180100Ev, symObjAddr: 0x188C, symBinAddr: 0x100005544, symSize: 0x30 }
  - { offset: 0xCED8, size: 0x8, addend: 0x0, symName: __ZNKSt3__111__wrap_iterIP5ChordEdeB8ne180100Ev, symObjAddr: 0x18F0, symBinAddr: 0x1000055A8, symSize: 0x18 }
  - { offset: 0xCEFD, size: 0x8, addend: 0x0, symName: __ZNSt3__111__wrap_iterIP5ChordEppB8ne180100Ev, symObjAddr: 0x1908, symBinAddr: 0x1000055C0, symSize: 0x20 }
  - { offset: 0xCF22, size: 0x8, addend: 0x0, symName: _main, symObjAddr: 0x1928, symBinAddr: 0x1000055E0, symSize: 0x9C }
  - { offset: 0xCF58, size: 0x8, addend: 0x0, symName: __ZN19MaximumPlanarSubsetD2Ev, symObjAddr: 0x19C4, symBinAddr: 0x10000567C, symSize: 0xA0 }
  - { offset: 0xCF83, size: 0x8, addend: 0x0, symName: __ZNSt3__114basic_ofstreamIcNS_11char_traitsIcEEED2Ev, symObjAddr: 0x1A64, symBinAddr: 0x10000571C, symSize: 0x9C }
  - { offset: 0xCFBB, size: 0x8, addend: 0x0, symName: __ZTv0_n24_NSt3__114basic_ofstreamIcNS_11char_traitsIcEEED1Ev, symObjAddr: 0x1B00, symBinAddr: 0x1000057B8, symSize: 0x28 }
  - { offset: 0xCFD2, size: 0x8, addend: 0x0, symName: __ZNSt3__114basic_ifstreamIcNS_11char_traitsIcEEED2Ev, symObjAddr: 0x1B28, symBinAddr: 0x1000057E0, symSize: 0x9C }
  - { offset: 0xD00A, size: 0x8, addend: 0x0, symName: __ZTv0_n24_NSt3__114basic_ifstreamIcNS_11char_traitsIcEEED1Ev, symObjAddr: 0x1BC4, symBinAddr: 0x10000587C, symSize: 0x28 }
  - { offset: 0xD020, size: 0x8, addend: 0x0, symName: __ZNSt3__16vectorI5ChordNS_9allocatorIS1_EEEC2ERKS4_, symObjAddr: 0x1BEC, symBinAddr: 0x1000058A4, symSize: 0x94 }
  - { offset: 0xD064, size: 0x8, addend: 0x0, symName: __ZNSt3__116allocator_traitsINS_9allocatorI5ChordEEE37select_on_container_copy_constructionB8ne180100IS3_vvEES3_RKS3_, symObjAddr: 0x1C80, symBinAddr: 0x100005938, symSize: 0x10 }
  - { offset: 0xD093, size: 0x8, addend: 0x0, symName: __ZNKSt3__16vectorI5ChordNS_9allocatorIS1_EEE7__allocB8ne180100Ev, symObjAddr: 0x1C90, symBinAddr: 0x100005948, symSize: 0x28 }
  - { offset: 0xD0C7, size: 0x8, addend: 0x0, symName: __ZNSt3__117__compressed_pairIP5ChordNS_9allocatorIS1_EEEC1B8ne180100IDnS4_EEOT_OT0_, symObjAddr: 0x1CB8, symBinAddr: 0x100005970, symSize: 0x3C }
  - { offset: 0xD11E, size: 0x8, addend: 0x0, symName: __ZNSt3__16vectorI5ChordNS_9allocatorIS1_EEE16__init_with_sizeB8ne180100IPS1_S6_EEvT_T0_m, symObjAddr: 0x1CF4, symBinAddr: 0x1000059AC, symSize: 0xC0 }
  - { offset: 0xD191, size: 0x8, addend: 0x0, symName: __ZNKSt3__16vectorI5ChordNS_9allocatorIS1_EEE4sizeB8ne180100Ev, symObjAddr: 0x1DB4, symBinAddr: 0x100005A6C, symSize: 0x28 }
  - { offset: 0xD1B6, size: 0x8, addend: 0x0, symName: __ZNKSt3__117__compressed_pairIP5ChordNS_9allocatorIS1_EEE6secondB8ne180100Ev, symObjAddr: 0x1DDC, symBinAddr: 0x100005A94, symSize: 0x24 }
  - { offset: 0xD1DB, size: 0x8, addend: 0x0, symName: __ZNKSt3__122__compressed_pair_elemINS_9allocatorI5ChordEELi1ELb1EE5__getB8ne180100Ev, symObjAddr: 0x1E00, symBinAddr: 0x100005AB8, symSize: 0x14 }
  - { offset: 0xD1FF, size: 0x8, addend: 0x0, symName: __ZNSt3__117__compressed_pairIP5ChordNS_9allocatorIS1_EEEC2B8ne180100IDnS4_EEOT_OT0_, symObjAddr: 0x1E14, symBinAddr: 0x100005ACC, symSize: 0x44 }
  - { offset: 0xD256, size: 0x8, addend: 0x0, symName: __ZNSt3__122__compressed_pair_elemIP5ChordLi0ELb0EEC2B8ne180100IDnvEEOT_, symObjAddr: 0x1E58, symBinAddr: 0x100005B10, symSize: 0x1C }
  - { offset: 0xD297, size: 0x8, addend: 0x0, symName: __ZNSt3__122__compressed_pair_elemINS_9allocatorI5ChordEELi1ELb1EEC2B8ne180100IS3_vEEOT_, symObjAddr: 0x1E74, symBinAddr: 0x100005B2C, symSize: 0x18 }
  - { offset: 0xD2D7, size: 0x8, addend: 0x0, symName: __ZNSt3__16vectorI5ChordNS_9allocatorIS1_EEE16__destroy_vectorC1B8ne180100ERS4_, symObjAddr: 0x1ECC, symBinAddr: 0x100005B84, symSize: 0x34 }
  - { offset: 0xD30F, size: 0x8, addend: 0x0, symName: __ZNSt3__16vectorI5ChordNS_9allocatorIS1_EEE11__vallocateB8ne180100Em, symObjAddr: 0x1F00, symBinAddr: 0x100005BB8, symSize: 0xAC }
  - { offset: 0xD351, size: 0x8, addend: 0x0, symName: __ZNSt3__16vectorI5ChordNS_9allocatorIS1_EEE18__construct_at_endIPS1_S6_EEvT_T0_m, symObjAddr: 0x1FAC, symBinAddr: 0x100005C64, symSize: 0x94 }
  - { offset: 0xD3C6, size: 0x8, addend: 0x0, symName: __ZNSt3__128__exception_guard_exceptionsINS_6vectorI5ChordNS_9allocatorIS2_EEE16__destroy_vectorEE10__completeB8ne180100Ev, symObjAddr: 0x2040, symBinAddr: 0x100005CF8, symSize: 0x1C }
  - { offset: 0xD3EA, size: 0x8, addend: 0x0, symName: __ZNSt3__128__exception_guard_exceptionsINS_6vectorI5ChordNS_9allocatorIS2_EEE16__destroy_vectorEED1B8ne180100Ev, symObjAddr: 0x205C, symBinAddr: 0x100005D14, symSize: 0x2C }
  - { offset: 0xD412, size: 0x8, addend: 0x0, symName: __ZNSt3__128__exception_guard_exceptionsINS_6vectorI5ChordNS_9allocatorIS2_EEE16__destroy_vectorEEC1B8ne180100ES6_, symObjAddr: 0x2088, symBinAddr: 0x100005D40, symSize: 0x34 }
  - { offset: 0xD449, size: 0x8, addend: 0x0, symName: __ZNSt3__128__exception_guard_exceptionsINS_6vectorI5ChordNS_9allocatorIS2_EEE16__destroy_vectorEEC2B8ne180100ES6_, symObjAddr: 0x20BC, symBinAddr: 0x100005D74, symSize: 0x24 }
  - { offset: 0xD480, size: 0x8, addend: 0x0, symName: __ZNSt3__16vectorI5ChordNS_9allocatorIS1_EEE16__destroy_vectorC2B8ne180100ERS4_, symObjAddr: 0x20E0, symBinAddr: 0x100005D98, symSize: 0x20 }
  - { offset: 0xD4B7, size: 0x8, addend: 0x0, symName: __ZNKSt3__16vectorI5ChordNS_9allocatorIS1_EEE8max_sizeEv, symObjAddr: 0x2100, symBinAddr: 0x100005DB8, symSize: 0x74 }
  - { offset: 0xD4DE, size: 0x8, addend: 0x0, symName: __ZNKSt3__16vectorI5ChordNS_9allocatorIS1_EEE20__throw_length_errorB8ne180100Ev, symObjAddr: 0x2174, symBinAddr: 0x100005E2C, symSize: 0x1C }
  - { offset: 0xD503, size: 0x8, addend: 0x0, symName: __ZNSt3__16vectorI5ChordNS_9allocatorIS1_EEE7__allocB8ne180100Ev, symObjAddr: 0x21D0, symBinAddr: 0x100005E88, symSize: 0x28 }
  - { offset: 0xD528, size: 0x8, addend: 0x0, symName: __ZNSt3__16vectorI5ChordNS_9allocatorIS1_EEE9__end_capB8ne180100Ev, symObjAddr: 0x21F8, symBinAddr: 0x100005EB0, symSize: 0x28 }
  - { offset: 0xD54D, size: 0x8, addend: 0x0, symName: __ZNKSt3__16vectorI5ChordNS_9allocatorIS1_EEE14__annotate_newB8ne180100Em, symObjAddr: 0x2220, symBinAddr: 0x100005ED8, symSize: 0x14 }
  - { offset: 0xD581, size: 0x8, addend: 0x0, symName: __ZNSt3__116allocator_traitsINS_9allocatorI5ChordEEE8max_sizeB8ne180100IS3_vEEmRKS3_, symObjAddr: 0x2260, symBinAddr: 0x100005F18, symSize: 0x24 }
  - { offset: 0xD5AF, size: 0x8, addend: 0x0, symName: __ZNSt3__114numeric_limitsIlE3maxB8ne180100Ev, symObjAddr: 0x2284, symBinAddr: 0x100005F3C, symSize: 0x14 }
  - { offset: 0xD5D7, size: 0x8, addend: 0x0, symName: __ZNKSt3__16__lessIvvEclB8ne180100ImmEEbRKT_RKT0_, symObjAddr: 0x22EC, symBinAddr: 0x100005FA4, symSize: 0x34 }
  - { offset: 0xD62A, size: 0x8, addend: 0x0, symName: __ZNKSt3__19allocatorI5ChordE8max_sizeB8ne180100Ev, symObjAddr: 0x2320, symBinAddr: 0x100005FD8, symSize: 0x14 }
  - { offset: 0xD64F, size: 0x8, addend: 0x0, symName: __ZNSt3__123__libcpp_numeric_limitsIlLb1EE3maxB8ne180100Ev, symObjAddr: 0x2334, symBinAddr: 0x100005FEC, symSize: 0x8 }
  - { offset: 0xD662, size: 0x8, addend: 0x0, symName: __ZNSt12length_errorC1B8ne180100EPKc, symObjAddr: 0x23A0, symBinAddr: 0x100006058, symSize: 0x34 }
  - { offset: 0xD698, size: 0x8, addend: 0x0, symName: __ZNSt12length_errorC2B8ne180100EPKc, symObjAddr: 0x23D4, symBinAddr: 0x10000608C, symSize: 0x44 }
  - { offset: 0xD6CF, size: 0x8, addend: 0x0, symName: __ZNSt3__19allocatorI5ChordE8allocateB8ne180100Em, symObjAddr: 0x2418, symBinAddr: 0x1000060D0, symSize: 0x84 }
  - { offset: 0xD702, size: 0x8, addend: 0x0, symName: __ZNSt3__117__compressed_pairIP5ChordNS_9allocatorIS1_EEE6secondB8ne180100Ev, symObjAddr: 0x2528, symBinAddr: 0x1000061E0, symSize: 0x24 }
  - { offset: 0xD727, size: 0x8, addend: 0x0, symName: __ZNSt3__122__compressed_pair_elemINS_9allocatorI5ChordEELi1ELb1EE5__getB8ne180100Ev, symObjAddr: 0x254C, symBinAddr: 0x100006204, symSize: 0x14 }
  - { offset: 0xD74C, size: 0x8, addend: 0x0, symName: __ZNSt3__117__compressed_pairIP5ChordNS_9allocatorIS1_EEE5firstB8ne180100Ev, symObjAddr: 0x2560, symBinAddr: 0x100006218, symSize: 0x24 }
  - { offset: 0xD771, size: 0x8, addend: 0x0, symName: __ZNSt3__122__compressed_pair_elemIP5ChordLi0ELb0EE5__getB8ne180100Ev, symObjAddr: 0x2584, symBinAddr: 0x10000623C, symSize: 0x14 }
  - { offset: 0xD7AE, size: 0x8, addend: 0x0, symName: __ZNSt3__16vectorI5ChordNS_9allocatorIS1_EEE21_ConstructTransactionC1B8ne180100ERS4_m, symObjAddr: 0x2598, symBinAddr: 0x100006250, symSize: 0x3C }
  - { offset: 0xD7F4, size: 0x8, addend: 0x0, symName: __ZNSt3__16vectorI5ChordNS_9allocatorIS1_EEE21_ConstructTransactionD1B8ne180100Ev, symObjAddr: 0x2654, symBinAddr: 0x10000630C, symSize: 0x2C }
  - { offset: 0xD81D, size: 0x8, addend: 0x0, symName: __ZNSt3__16vectorI5ChordNS_9allocatorIS1_EEE21_ConstructTransactionC2B8ne180100ERS4_m, symObjAddr: 0x2680, symBinAddr: 0x100006338, symSize: 0x44 }
  - { offset: 0xD87C, size: 0x8, addend: 0x0, symName: __ZNSt3__14pairIP5ChordS2_EC1B8ne180100ERKS2_S5_, symObjAddr: 0x28CC, symBinAddr: 0x100006584, symSize: 0x3C }
  - { offset: 0xD8C1, size: 0x8, addend: 0x0, symName: __ZNSt3__14pairIP5ChordS2_EC2B8ne180100ERKS2_S5_, symObjAddr: 0x2908, symBinAddr: 0x1000065C0, symSize: 0x34 }
  - { offset: 0xD905, size: 0x8, addend: 0x0, symName: __ZNSt3__129_AllocatorDestroyRangeReverseINS_9allocatorI5ChordEEPS2_EC1B8ne180100ERS3_RS4_S7_, symObjAddr: 0x2988, symBinAddr: 0x100006640, symSize: 0x44 }
  - { offset: 0xD95B, size: 0x8, addend: 0x0, symName: __ZNSt3__116allocator_traitsINS_9allocatorI5ChordEEE9constructB8ne180100IS2_JRS2_EvEEvRS3_PT_DpOT0_, symObjAddr: 0x29CC, symBinAddr: 0x100006684, symSize: 0x34 }
  - { offset: 0xD9B2, size: 0x8, addend: 0x0, symName: __ZNSt3__128__exception_guard_exceptionsINS_29_AllocatorDestroyRangeReverseINS_9allocatorI5ChordEEPS3_EEE10__completeB8ne180100Ev, symObjAddr: 0x2A14, symBinAddr: 0x1000066CC, symSize: 0x1C }
  - { offset: 0xD9D6, size: 0x8, addend: 0x0, symName: __ZNSt3__128__exception_guard_exceptionsINS_29_AllocatorDestroyRangeReverseINS_9allocatorI5ChordEEPS3_EEED1B8ne180100Ev, symObjAddr: 0x2A30, symBinAddr: 0x1000066E8, symSize: 0x2C }
  - { offset: 0xD9FE, size: 0x8, addend: 0x0, symName: __ZNSt3__128__exception_guard_exceptionsINS_29_AllocatorDestroyRangeReverseINS_9allocatorI5ChordEEPS3_EEEC1B8ne180100ES6_, symObjAddr: 0x2A5C, symBinAddr: 0x100006714, symSize: 0x34 }
  - { offset: 0xDA36, size: 0x8, addend: 0x0, symName: __ZNSt3__128__exception_guard_exceptionsINS_29_AllocatorDestroyRangeReverseINS_9allocatorI5ChordEEPS3_EEEC2B8ne180100ES6_, symObjAddr: 0x2A90, symBinAddr: 0x100006748, symSize: 0x30 }
  - { offset: 0xDA6E, size: 0x8, addend: 0x0, symName: __ZNSt3__129_AllocatorDestroyRangeReverseINS_9allocatorI5ChordEEPS2_EC2B8ne180100ERS3_RS4_S7_, symObjAddr: 0x2AC0, symBinAddr: 0x100006778, symSize: 0x38 }
  - { offset: 0xDAC4, size: 0x8, addend: 0x0, symName: __ZNSt3__19allocatorI5ChordE9constructB8ne180100IS1_JRS1_EEEvPT_DpOT0_, symObjAddr: 0x2AF8, symBinAddr: 0x1000067B0, symSize: 0x28 }
  - { offset: 0xDB18, size: 0x8, addend: 0x0, symName: __ZNSt3__128__exception_guard_exceptionsINS_29_AllocatorDestroyRangeReverseINS_9allocatorI5ChordEEPS3_EEED2B8ne180100Ev, symObjAddr: 0x2B20, symBinAddr: 0x1000067D8, symSize: 0x48 }
  - { offset: 0xDB41, size: 0x8, addend: 0x0, symName: __ZNKSt3__129_AllocatorDestroyRangeReverseINS_9allocatorI5ChordEEPS2_EclB8ne180100Ev, symObjAddr: 0x2B68, symBinAddr: 0x100006820, symSize: 0x68 }
  - { offset: 0xDB65, size: 0x8, addend: 0x0, symName: __ZNSt3__116reverse_iteratorIP5ChordEC1B8ne180100ES2_, symObjAddr: 0x2C40, symBinAddr: 0x1000068F8, symSize: 0x34 }
  - { offset: 0xDB9C, size: 0x8, addend: 0x0, symName: __ZNSt3__116allocator_traitsINS_9allocatorI5ChordEEE7destroyB8ne180100IS2_vEEvRS3_PT_, symObjAddr: 0x2CBC, symBinAddr: 0x100006974, symSize: 0x2C }
  - { offset: 0xDBD9, size: 0x8, addend: 0x0, symName: __ZNSt3__116reverse_iteratorIP5ChordEppB8ne180100Ev, symObjAddr: 0x2D0C, symBinAddr: 0x1000069C4, symSize: 0x20 }
  - { offset: 0xDBFE, size: 0x8, addend: 0x0, symName: __ZNKSt3__116reverse_iteratorIP5ChordE4baseB8ne180100Ev, symObjAddr: 0x2D2C, symBinAddr: 0x1000069E4, symSize: 0x18 }
  - { offset: 0xDC23, size: 0x8, addend: 0x0, symName: __ZNSt3__19allocatorI5ChordE7destroyB8ne180100EPS1_, symObjAddr: 0x2D44, symBinAddr: 0x1000069FC, symSize: 0x14 }
  - { offset: 0xDC5B, size: 0x8, addend: 0x0, symName: __ZNSt3__119__to_address_helperINS_16reverse_iteratorIP5ChordEEvE6__callB8ne180100ERKS4_, symObjAddr: 0x2D58, symBinAddr: 0x100006A10, symSize: 0x4C }
  - { offset: 0xDC7E, size: 0x8, addend: 0x0, symName: __ZNKSt3__116reverse_iteratorIP5ChordEptB8ne180100Ev, symObjAddr: 0x2DA4, symBinAddr: 0x100006A5C, symSize: 0x24 }
  - { offset: 0xDCA3, size: 0x8, addend: 0x0, symName: __ZNKSt3__116reverse_iteratorIP5ChordEdeB8ne180100Ev, symObjAddr: 0x2DC8, symBinAddr: 0x100006A80, symSize: 0x28 }
  - { offset: 0xDCD6, size: 0x8, addend: 0x0, symName: __ZNSt3__116reverse_iteratorIP5ChordEC2B8ne180100ES2_, symObjAddr: 0x2DF0, symBinAddr: 0x100006AA8, symSize: 0x28 }
  - { offset: 0xDD0D, size: 0x8, addend: 0x0, symName: __ZNSt3__118__unwrap_iter_implIP5ChordLb1EE8__unwrapB8ne180100ES2_, symObjAddr: 0x2E18, symBinAddr: 0x100006AD0, symSize: 0x24 }
  - { offset: 0xDD30, size: 0x8, addend: 0x0, symName: __ZNSt3__118__unwrap_iter_implIP5ChordLb1EE8__rewrapB8ne180100ES2_S2_, symObjAddr: 0x2E3C, symBinAddr: 0x100006AF4, symSize: 0x50 }
  - { offset: 0xDD61, size: 0x8, addend: 0x0, symName: __ZNSt3__16vectorI5ChordNS_9allocatorIS1_EEE21_ConstructTransactionD2B8ne180100Ev, symObjAddr: 0x2E8C, symBinAddr: 0x100006B44, symSize: 0x20 }
  - { offset: 0xDD89, size: 0x8, addend: 0x0, symName: __ZNSt3__128__exception_guard_exceptionsINS_6vectorI5ChordNS_9allocatorIS2_EEE16__destroy_vectorEED2B8ne180100Ev, symObjAddr: 0x2EAC, symBinAddr: 0x100006B64, symSize: 0x48 }
  - { offset: 0xDDB2, size: 0x8, addend: 0x0, symName: __ZNSt3__16vectorI5ChordNS_9allocatorIS1_EEE16__destroy_vectorclB8ne180100Ev, symObjAddr: 0x2EF4, symBinAddr: 0x100006BAC, symSize: 0x90 }
  - { offset: 0xDDD7, size: 0x8, addend: 0x0, symName: __ZNSt3__16vectorI5ChordNS_9allocatorIS1_EEE7__clearB8ne180100Ev, symObjAddr: 0x2F84, symBinAddr: 0x100006C3C, symSize: 0x28 }
  - { offset: 0xDDFC, size: 0x8, addend: 0x0, symName: __ZNKSt3__16vectorI5ChordNS_9allocatorIS1_EEE17__annotate_deleteB8ne180100Ev, symObjAddr: 0x2FAC, symBinAddr: 0x100006C64, symSize: 0x10 }
  - { offset: 0xDE21, size: 0x8, addend: 0x0, symName: __ZNSt3__116allocator_traitsINS_9allocatorI5ChordEEE10deallocateB8ne180100ERS3_PS2_m, symObjAddr: 0x2FBC, symBinAddr: 0x100006C74, symSize: 0x34 }
  - { offset: 0xDE63, size: 0x8, addend: 0x0, symName: __ZNKSt3__16vectorI5ChordNS_9allocatorIS1_EEE8capacityB8ne180100Ev, symObjAddr: 0x2FF0, symBinAddr: 0x100006CA8, symSize: 0x40 }
  - { offset: 0xDE88, size: 0x8, addend: 0x0, symName: __ZNSt3__16vectorI5ChordNS_9allocatorIS1_EEE22__base_destruct_at_endB8ne180100EPS1_, symObjAddr: 0x3030, symBinAddr: 0x100006CE8, symSize: 0xA0 }
  - { offset: 0xDECB, size: 0x8, addend: 0x0, symName: __ZNSt3__19allocatorI5ChordE10deallocateB8ne180100EPS1_m, symObjAddr: 0x30D0, symBinAddr: 0x100006D88, symSize: 0x70 }
  - { offset: 0xDF0C, size: 0x8, addend: 0x0, symName: __ZNKSt3__16vectorI5ChordNS_9allocatorIS1_EEE9__end_capB8ne180100Ev, symObjAddr: 0x31BC, symBinAddr: 0x100006E74, symSize: 0x28 }
  - { offset: 0xDF31, size: 0x8, addend: 0x0, symName: __ZNKSt3__117__compressed_pairIP5ChordNS_9allocatorIS1_EEE5firstB8ne180100Ev, symObjAddr: 0x31E4, symBinAddr: 0x100006E9C, symSize: 0x24 }
  - { offset: 0xDF56, size: 0x8, addend: 0x0, symName: __ZNKSt3__122__compressed_pair_elemIP5ChordLi0ELb0EE5__getB8ne180100Ev, symObjAddr: 0x3208, symBinAddr: 0x100006EC0, symSize: 0x14 }
  - { offset: 0xDF7A, size: 0x8, addend: 0x0, symName: __ZNSt3__16vectorIiNS_9allocatorIiEEEC2EmRKi, symObjAddr: 0x321C, symBinAddr: 0x100006ED4, symSize: 0xE4 }
  - { offset: 0xDFDC, size: 0x8, addend: 0x0, symName: __ZNSt3__117__compressed_pairIPiNS_9allocatorIiEEEC1B8ne180100IDnNS_18__default_init_tagEEEOT_OT0_, symObjAddr: 0x3300, symBinAddr: 0x100006FB8, symSize: 0x3C }
  - { offset: 0xE032, size: 0x8, addend: 0x0, symName: __ZNSt3__16vectorIiNS_9allocatorIiEEE16__destroy_vectorC1B8ne180100ERS3_, symObjAddr: 0x337C, symBinAddr: 0x100007034, symSize: 0x34 }
  - { offset: 0xE06A, size: 0x8, addend: 0x0, symName: __ZNSt3__16vectorIiNS_9allocatorIiEEE11__vallocateB8ne180100Em, symObjAddr: 0x33B0, symBinAddr: 0x100007068, symSize: 0xAC }
  - { offset: 0xE0AC, size: 0x8, addend: 0x0, symName: __ZNSt3__16vectorIiNS_9allocatorIiEEE18__construct_at_endEmRKi, symObjAddr: 0x345C, symBinAddr: 0x100007114, symSize: 0xD8 }
  - { offset: 0xE12C, size: 0x8, addend: 0x0, symName: __ZNSt3__128__exception_guard_exceptionsINS_6vectorIiNS_9allocatorIiEEE16__destroy_vectorEE10__completeB8ne180100Ev, symObjAddr: 0x3534, symBinAddr: 0x1000071EC, symSize: 0x1C }
  - { offset: 0xE150, size: 0x8, addend: 0x0, symName: __ZNSt3__128__exception_guard_exceptionsINS_6vectorIiNS_9allocatorIiEEE16__destroy_vectorEED1B8ne180100Ev, symObjAddr: 0x3550, symBinAddr: 0x100007208, symSize: 0x2C }
  - { offset: 0xE178, size: 0x8, addend: 0x0, symName: __ZNSt3__117__compressed_pairIPiNS_9allocatorIiEEEC2B8ne180100IDnNS_18__default_init_tagEEEOT_OT0_, symObjAddr: 0x357C, symBinAddr: 0x100007234, symSize: 0x40 }
  - { offset: 0xE1CF, size: 0x8, addend: 0x0, symName: __ZNSt3__122__compressed_pair_elemIPiLi0ELb0EEC2B8ne180100IDnvEEOT_, symObjAddr: 0x35BC, symBinAddr: 0x100007274, symSize: 0x1C }
  - { offset: 0xE20F, size: 0x8, addend: 0x0, symName: __ZNSt3__122__compressed_pair_elemINS_9allocatorIiEELi1ELb1EEC2B8ne180100ENS_18__default_init_tagE, symObjAddr: 0x35D8, symBinAddr: 0x100007290, symSize: 0x2C }
  - { offset: 0xE242, size: 0x8, addend: 0x0, symName: __ZNSt3__19allocatorIiEC2B8ne180100Ev, symObjAddr: 0x3604, symBinAddr: 0x1000072BC, symSize: 0x2C }
  - { offset: 0xE26B, size: 0x8, addend: 0x0, symName: __ZNSt3__116__non_trivial_ifILb1ENS_9allocatorIiEEEC2B8ne180100Ev, symObjAddr: 0x3630, symBinAddr: 0x1000072E8, symSize: 0x14 }
  - { offset: 0xE293, size: 0x8, addend: 0x0, symName: __ZNSt3__128__exception_guard_exceptionsINS_6vectorIiNS_9allocatorIiEEE16__destroy_vectorEEC1B8ne180100ES5_, symObjAddr: 0x3644, symBinAddr: 0x1000072FC, symSize: 0x34 }
  - { offset: 0xE2CA, size: 0x8, addend: 0x0, symName: __ZNSt3__128__exception_guard_exceptionsINS_6vectorIiNS_9allocatorIiEEE16__destroy_vectorEEC2B8ne180100ES5_, symObjAddr: 0x3678, symBinAddr: 0x100007330, symSize: 0x24 }
  - { offset: 0xE301, size: 0x8, addend: 0x0, symName: __ZNSt3__16vectorIiNS_9allocatorIiEEE16__destroy_vectorC2B8ne180100ERS3_, symObjAddr: 0x369C, symBinAddr: 0x100007354, symSize: 0x20 }
  - { offset: 0xE338, size: 0x8, addend: 0x0, symName: __ZNKSt3__16vectorIiNS_9allocatorIiEEE8max_sizeEv, symObjAddr: 0x36BC, symBinAddr: 0x100007374, symSize: 0x74 }
  - { offset: 0xE35F, size: 0x8, addend: 0x0, symName: __ZNKSt3__16vectorIiNS_9allocatorIiEEE20__throw_length_errorB8ne180100Ev, symObjAddr: 0x3730, symBinAddr: 0x1000073E8, symSize: 0x1C }
  - { offset: 0xE384, size: 0x8, addend: 0x0, symName: __ZNSt3__16vectorIiNS_9allocatorIiEEE7__allocB8ne180100Ev, symObjAddr: 0x378C, symBinAddr: 0x100007444, symSize: 0x28 }
  - { offset: 0xE3A9, size: 0x8, addend: 0x0, symName: __ZNSt3__16vectorIiNS_9allocatorIiEEE9__end_capB8ne180100Ev, symObjAddr: 0x37B4, symBinAddr: 0x10000746C, symSize: 0x28 }
  - { offset: 0xE3CE, size: 0x8, addend: 0x0, symName: __ZNKSt3__16vectorIiNS_9allocatorIiEEE14__annotate_newB8ne180100Em, symObjAddr: 0x37DC, symBinAddr: 0x100007494, symSize: 0x14 }
  - { offset: 0xE40C, size: 0x8, addend: 0x0, symName: __ZNSt3__116allocator_traitsINS_9allocatorIiEEE8max_sizeB8ne180100IS2_vEEmRKS2_, symObjAddr: 0x37F0, symBinAddr: 0x1000074A8, symSize: 0x24 }
  - { offset: 0xE43A, size: 0x8, addend: 0x0, symName: __ZNKSt3__16vectorIiNS_9allocatorIiEEE7__allocB8ne180100Ev, symObjAddr: 0x3814, symBinAddr: 0x1000074CC, symSize: 0x28 }
  - { offset: 0xE45F, size: 0x8, addend: 0x0, symName: __ZNKSt3__19allocatorIiE8max_sizeB8ne180100Ev, symObjAddr: 0x383C, symBinAddr: 0x1000074F4, symSize: 0x14 }
  - { offset: 0xE484, size: 0x8, addend: 0x0, symName: __ZNKSt3__117__compressed_pairIPiNS_9allocatorIiEEE6secondB8ne180100Ev, symObjAddr: 0x3850, symBinAddr: 0x100007508, symSize: 0x24 }
  - { offset: 0xE4A9, size: 0x8, addend: 0x0, symName: __ZNKSt3__122__compressed_pair_elemINS_9allocatorIiEELi1ELb1EE5__getB8ne180100Ev, symObjAddr: 0x3874, symBinAddr: 0x10000752C, symSize: 0x14 }
  - { offset: 0xE4CE, size: 0x8, addend: 0x0, symName: __ZNSt3__19allocatorIiE8allocateB8ne180100Em, symObjAddr: 0x3888, symBinAddr: 0x100007540, symSize: 0x84 }
  - { offset: 0xE501, size: 0x8, addend: 0x0, symName: __ZNSt3__117__compressed_pairIPiNS_9allocatorIiEEE6secondB8ne180100Ev, symObjAddr: 0x390C, symBinAddr: 0x1000075C4, symSize: 0x24 }
  - { offset: 0xE526, size: 0x8, addend: 0x0, symName: __ZNSt3__122__compressed_pair_elemINS_9allocatorIiEELi1ELb1EE5__getB8ne180100Ev, symObjAddr: 0x3930, symBinAddr: 0x1000075E8, symSize: 0x14 }
  - { offset: 0xE54B, size: 0x8, addend: 0x0, symName: __ZNSt3__117__compressed_pairIPiNS_9allocatorIiEEE5firstB8ne180100Ev, symObjAddr: 0x3944, symBinAddr: 0x1000075FC, symSize: 0x24 }
  - { offset: 0xE570, size: 0x8, addend: 0x0, symName: __ZNSt3__122__compressed_pair_elemIPiLi0ELb0EE5__getB8ne180100Ev, symObjAddr: 0x3968, symBinAddr: 0x100007620, symSize: 0x14 }
  - { offset: 0xE5AD, size: 0x8, addend: 0x0, symName: __ZNSt3__16vectorIiNS_9allocatorIiEEE21_ConstructTransactionC1B8ne180100ERS3_m, symObjAddr: 0x397C, symBinAddr: 0x100007634, symSize: 0x3C }
  - { offset: 0xE5F4, size: 0x8, addend: 0x0, symName: __ZNSt3__116allocator_traitsINS_9allocatorIiEEE9constructB8ne180100IiJRKiEvEEvRS2_PT_DpOT0_, symObjAddr: 0x39B8, symBinAddr: 0x100007670, symSize: 0x34 }
  - { offset: 0xE64A, size: 0x8, addend: 0x0, symName: __ZNSt3__16vectorIiNS_9allocatorIiEEE21_ConstructTransactionD1B8ne180100Ev, symObjAddr: 0x3A00, symBinAddr: 0x1000076B8, symSize: 0x2C }
  - { offset: 0xE673, size: 0x8, addend: 0x0, symName: __ZNSt3__16vectorIiNS_9allocatorIiEEE21_ConstructTransactionC2B8ne180100ERS3_m, symObjAddr: 0x3A2C, symBinAddr: 0x1000076E4, symSize: 0x44 }
  - { offset: 0xE6BA, size: 0x8, addend: 0x0, symName: __ZNSt3__19allocatorIiE9constructB8ne180100IiJRKiEEEvPT_DpOT0_, symObjAddr: 0x3A70, symBinAddr: 0x100007728, symSize: 0x28 }
  - { offset: 0xE70F, size: 0x8, addend: 0x0, symName: __ZNSt3__16vectorIiNS_9allocatorIiEEE21_ConstructTransactionD2B8ne180100Ev, symObjAddr: 0x3A98, symBinAddr: 0x100007750, symSize: 0x20 }
  - { offset: 0xE737, size: 0x8, addend: 0x0, symName: __ZNSt3__128__exception_guard_exceptionsINS_6vectorIiNS_9allocatorIiEEE16__destroy_vectorEED2B8ne180100Ev, symObjAddr: 0x3AB8, symBinAddr: 0x100007770, symSize: 0x48 }
  - { offset: 0xE760, size: 0x8, addend: 0x0, symName: __ZNSt3__16vectorIiNS_9allocatorIiEEE16__destroy_vectorclB8ne180100Ev, symObjAddr: 0x3B00, symBinAddr: 0x1000077B8, symSize: 0x90 }
  - { offset: 0xE785, size: 0x8, addend: 0x0, symName: __ZNSt3__16vectorIiNS_9allocatorIiEEE7__clearB8ne180100Ev, symObjAddr: 0x3B90, symBinAddr: 0x100007848, symSize: 0x28 }
  - { offset: 0xE7AA, size: 0x8, addend: 0x0, symName: __ZNKSt3__16vectorIiNS_9allocatorIiEEE17__annotate_deleteB8ne180100Ev, symObjAddr: 0x3BB8, symBinAddr: 0x100007870, symSize: 0x10 }
  - { offset: 0xE7CF, size: 0x8, addend: 0x0, symName: __ZNSt3__116allocator_traitsINS_9allocatorIiEEE10deallocateB8ne180100ERS2_Pim, symObjAddr: 0x3BC8, symBinAddr: 0x100007880, symSize: 0x34 }
  - { offset: 0xE811, size: 0x8, addend: 0x0, symName: __ZNKSt3__16vectorIiNS_9allocatorIiEEE8capacityB8ne180100Ev, symObjAddr: 0x3BFC, symBinAddr: 0x1000078B4, symSize: 0x40 }
  - { offset: 0xE836, size: 0x8, addend: 0x0, symName: __ZNSt3__16vectorIiNS_9allocatorIiEEE22__base_destruct_at_endB8ne180100EPi, symObjAddr: 0x3C3C, symBinAddr: 0x1000078F4, symSize: 0xA0 }
  - { offset: 0xE879, size: 0x8, addend: 0x0, symName: __ZNSt3__116allocator_traitsINS_9allocatorIiEEE7destroyB8ne180100IivEEvRS2_PT_, symObjAddr: 0x3CDC, symBinAddr: 0x100007994, symSize: 0x2C }
  - { offset: 0xE8B6, size: 0x8, addend: 0x0, symName: __ZNSt3__19allocatorIiE7destroyB8ne180100EPi, symObjAddr: 0x3D08, symBinAddr: 0x1000079C0, symSize: 0x14 }
  - { offset: 0xE8E9, size: 0x8, addend: 0x0, symName: __ZNSt3__19allocatorIiE10deallocateB8ne180100EPim, symObjAddr: 0x3D1C, symBinAddr: 0x1000079D4, symSize: 0x70 }
  - { offset: 0xE92A, size: 0x8, addend: 0x0, symName: __ZNKSt3__16vectorIiNS_9allocatorIiEEE9__end_capB8ne180100Ev, symObjAddr: 0x3D8C, symBinAddr: 0x100007A44, symSize: 0x28 }
  - { offset: 0xE94F, size: 0x8, addend: 0x0, symName: __ZNKSt3__117__compressed_pairIPiNS_9allocatorIiEEE5firstB8ne180100Ev, symObjAddr: 0x3DB4, symBinAddr: 0x100007A6C, symSize: 0x24 }
  - { offset: 0xE974, size: 0x8, addend: 0x0, symName: __ZNKSt3__122__compressed_pair_elemIPiLi0ELb0EE5__getB8ne180100Ev, symObjAddr: 0x3DD8, symBinAddr: 0x100007A90, symSize: 0x14 }
  - { offset: 0xE998, size: 0x8, addend: 0x0, symName: __ZNSt3__16vectorIiNS_9allocatorIiEEED2B8ne180100Ev, symObjAddr: 0x3DEC, symBinAddr: 0x100007AA4, symSize: 0x3C }
  - { offset: 0xE9C0, size: 0x8, addend: 0x0, symName: __ZNSt3__16vectorINS0_IiNS_9allocatorIiEEEENS1_IS3_EEEC2EmRKS3_, symObjAddr: 0x3E28, symBinAddr: 0x100007AE0, symSize: 0xE4 }
  - { offset: 0xEA1D, size: 0x8, addend: 0x0, symName: __ZNSt3__117__compressed_pairIPNS_6vectorIiNS_9allocatorIiEEEENS2_IS4_EEEC1B8ne180100IDnNS_18__default_init_tagEEEOT_OT0_, symObjAddr: 0x3F0C, symBinAddr: 0x100007BC4, symSize: 0x3C }
  - { offset: 0xEA73, size: 0x8, addend: 0x0, symName: __ZNSt3__16vectorINS0_IiNS_9allocatorIiEEEENS1_IS3_EEE16__destroy_vectorC1B8ne180100ERS5_, symObjAddr: 0x3F88, symBinAddr: 0x100007C40, symSize: 0x34 }
  - { offset: 0xEAAB, size: 0x8, addend: 0x0, symName: __ZNSt3__16vectorINS0_IiNS_9allocatorIiEEEENS1_IS3_EEE11__vallocateB8ne180100Em, symObjAddr: 0x3FBC, symBinAddr: 0x100007C74, symSize: 0xB4 }
  - { offset: 0xEAED, size: 0x8, addend: 0x0, symName: __ZNSt3__16vectorINS0_IiNS_9allocatorIiEEEENS1_IS3_EEE18__construct_at_endEmRKS3_, symObjAddr: 0x4070, symBinAddr: 0x100007D28, symSize: 0xD8 }
  - { offset: 0xEB6D, size: 0x8, addend: 0x0, symName: __ZNSt3__128__exception_guard_exceptionsINS_6vectorINS1_IiNS_9allocatorIiEEEENS2_IS4_EEE16__destroy_vectorEE10__completeB8ne180100Ev, symObjAddr: 0x4148, symBinAddr: 0x100007E00, symSize: 0x1C }
  - { offset: 0xEB91, size: 0x8, addend: 0x0, symName: __ZNSt3__128__exception_guard_exceptionsINS_6vectorINS1_IiNS_9allocatorIiEEEENS2_IS4_EEE16__destroy_vectorEED1B8ne180100Ev, symObjAddr: 0x4164, symBinAddr: 0x100007E1C, symSize: 0x2C }
  - { offset: 0xEBB9, size: 0x8, addend: 0x0, symName: __ZNSt3__117__compressed_pairIPNS_6vectorIiNS_9allocatorIiEEEENS2_IS4_EEEC2B8ne180100IDnNS_18__default_init_tagEEEOT_OT0_, symObjAddr: 0x4190, symBinAddr: 0x100007E48, symSize: 0x40 }
  - { offset: 0xEC10, size: 0x8, addend: 0x0, symName: __ZNSt3__122__compressed_pair_elemIPNS_6vectorIiNS_9allocatorIiEEEELi0ELb0EEC2B8ne180100IDnvEEOT_, symObjAddr: 0x41D0, symBinAddr: 0x100007E88, symSize: 0x1C }
  - { offset: 0xEC50, size: 0x8, addend: 0x0, symName: __ZNSt3__122__compressed_pair_elemINS_9allocatorINS_6vectorIiNS1_IiEEEEEELi1ELb1EEC2B8ne180100ENS_18__default_init_tagE, symObjAddr: 0x41EC, symBinAddr: 0x100007EA4, symSize: 0x2C }
  - { offset: 0xEC83, size: 0x8, addend: 0x0, symName: __ZNSt3__19allocatorINS_6vectorIiNS0_IiEEEEEC2B8ne180100Ev, symObjAddr: 0x4218, symBinAddr: 0x100007ED0, symSize: 0x2C }
  - { offset: 0xECAC, size: 0x8, addend: 0x0, symName: __ZNSt3__116__non_trivial_ifILb1ENS_9allocatorINS_6vectorIiNS1_IiEEEEEEEC2B8ne180100Ev, symObjAddr: 0x4244, symBinAddr: 0x100007EFC, symSize: 0x14 }
  - { offset: 0xECD4, size: 0x8, addend: 0x0, symName: __ZNSt3__128__exception_guard_exceptionsINS_6vectorINS1_IiNS_9allocatorIiEEEENS2_IS4_EEE16__destroy_vectorEEC1B8ne180100ES7_, symObjAddr: 0x4258, symBinAddr: 0x100007F10, symSize: 0x34 }
  - { offset: 0xED0B, size: 0x8, addend: 0x0, symName: __ZNSt3__128__exception_guard_exceptionsINS_6vectorINS1_IiNS_9allocatorIiEEEENS2_IS4_EEE16__destroy_vectorEEC2B8ne180100ES7_, symObjAddr: 0x428C, symBinAddr: 0x100007F44, symSize: 0x24 }
  - { offset: 0xED42, size: 0x8, addend: 0x0, symName: __ZNSt3__16vectorINS0_IiNS_9allocatorIiEEEENS1_IS3_EEE16__destroy_vectorC2B8ne180100ERS5_, symObjAddr: 0x42B0, symBinAddr: 0x100007F68, symSize: 0x20 }
  - { offset: 0xED79, size: 0x8, addend: 0x0, symName: __ZNKSt3__16vectorINS0_IiNS_9allocatorIiEEEENS1_IS3_EEE8max_sizeEv, symObjAddr: 0x42D0, symBinAddr: 0x100007F88, symSize: 0x74 }
  - { offset: 0xEDA0, size: 0x8, addend: 0x0, symName: __ZNKSt3__16vectorINS0_IiNS_9allocatorIiEEEENS1_IS3_EEE20__throw_length_errorB8ne180100Ev, symObjAddr: 0x4344, symBinAddr: 0x100007FFC, symSize: 0x1C }
  - { offset: 0xEDC5, size: 0x8, addend: 0x0, symName: __ZNSt3__16vectorINS0_IiNS_9allocatorIiEEEENS1_IS3_EEE7__allocB8ne180100Ev, symObjAddr: 0x43A0, symBinAddr: 0x100008058, symSize: 0x28 }
  - { offset: 0xEDEA, size: 0x8, addend: 0x0, symName: __ZNSt3__16vectorINS0_IiNS_9allocatorIiEEEENS1_IS3_EEE9__end_capB8ne180100Ev, symObjAddr: 0x43C8, symBinAddr: 0x100008080, symSize: 0x28 }
  - { offset: 0xEE0F, size: 0x8, addend: 0x0, symName: __ZNKSt3__16vectorINS0_IiNS_9allocatorIiEEEENS1_IS3_EEE14__annotate_newB8ne180100Em, symObjAddr: 0x43F0, symBinAddr: 0x1000080A8, symSize: 0x14 }
  - { offset: 0xEE4D, size: 0x8, addend: 0x0, symName: __ZNSt3__116allocator_traitsINS_9allocatorINS_6vectorIiNS1_IiEEEEEEE8max_sizeB8ne180100IS5_vEEmRKS5_, symObjAddr: 0x4404, symBinAddr: 0x1000080BC, symSize: 0x24 }
  - { offset: 0xEE7B, size: 0x8, addend: 0x0, symName: __ZNKSt3__16vectorINS0_IiNS_9allocatorIiEEEENS1_IS3_EEE7__allocB8ne180100Ev, symObjAddr: 0x4428, symBinAddr: 0x1000080E0, symSize: 0x28 }
  - { offset: 0xEEA0, size: 0x8, addend: 0x0, symName: __ZNKSt3__19allocatorINS_6vectorIiNS0_IiEEEEE8max_sizeB8ne180100Ev, symObjAddr: 0x4450, symBinAddr: 0x100008108, symSize: 0x18 }
  - { offset: 0xEEC5, size: 0x8, addend: 0x0, symName: __ZNKSt3__117__compressed_pairIPNS_6vectorIiNS_9allocatorIiEEEENS2_IS4_EEE6secondB8ne180100Ev, symObjAddr: 0x4468, symBinAddr: 0x100008120, symSize: 0x24 }
  - { offset: 0xEEEA, size: 0x8, addend: 0x0, symName: __ZNKSt3__122__compressed_pair_elemINS_9allocatorINS_6vectorIiNS1_IiEEEEEELi1ELb1EE5__getB8ne180100Ev, symObjAddr: 0x448C, symBinAddr: 0x100008144, symSize: 0x14 }
  - { offset: 0xEF0F, size: 0x8, addend: 0x0, symName: __ZNSt3__19allocatorINS_6vectorIiNS0_IiEEEEE8allocateB8ne180100Em, symObjAddr: 0x44A0, symBinAddr: 0x100008158, symSize: 0x8C }
  - { offset: 0xEF42, size: 0x8, addend: 0x0, symName: __ZNSt3__117__compressed_pairIPNS_6vectorIiNS_9allocatorIiEEEENS2_IS4_EEE6secondB8ne180100Ev, symObjAddr: 0x452C, symBinAddr: 0x1000081E4, symSize: 0x24 }
  - { offset: 0xEF67, size: 0x8, addend: 0x0, symName: __ZNSt3__122__compressed_pair_elemINS_9allocatorINS_6vectorIiNS1_IiEEEEEELi1ELb1EE5__getB8ne180100Ev, symObjAddr: 0x4550, symBinAddr: 0x100008208, symSize: 0x14 }
  - { offset: 0xEF8C, size: 0x8, addend: 0x0, symName: __ZNSt3__117__compressed_pairIPNS_6vectorIiNS_9allocatorIiEEEENS2_IS4_EEE5firstB8ne180100Ev, symObjAddr: 0x4564, symBinAddr: 0x10000821C, symSize: 0x24 }
  - { offset: 0xEFB1, size: 0x8, addend: 0x0, symName: __ZNSt3__122__compressed_pair_elemIPNS_6vectorIiNS_9allocatorIiEEEELi0ELb0EE5__getB8ne180100Ev, symObjAddr: 0x4588, symBinAddr: 0x100008240, symSize: 0x14 }
  - { offset: 0xEFEE, size: 0x8, addend: 0x0, symName: __ZNSt3__16vectorINS0_IiNS_9allocatorIiEEEENS1_IS3_EEE21_ConstructTransactionC1B8ne180100ERS5_m, symObjAddr: 0x459C, symBinAddr: 0x100008254, symSize: 0x3C }
  - { offset: 0xF035, size: 0x8, addend: 0x0, symName: __ZNSt3__116allocator_traitsINS_9allocatorINS_6vectorIiNS1_IiEEEEEEE9constructB8ne180100IS4_JRKS4_EvEEvRS5_PT_DpOT0_, symObjAddr: 0x45D8, symBinAddr: 0x100008290, symSize: 0x34 }
  - { offset: 0xF08B, size: 0x8, addend: 0x0, symName: __ZNSt3__16vectorINS0_IiNS_9allocatorIiEEEENS1_IS3_EEE21_ConstructTransactionD1B8ne180100Ev, symObjAddr: 0x4620, symBinAddr: 0x1000082D8, symSize: 0x2C }
  - { offset: 0xF0B4, size: 0x8, addend: 0x0, symName: __ZNSt3__16vectorINS0_IiNS_9allocatorIiEEEENS1_IS3_EEE21_ConstructTransactionC2B8ne180100ERS5_m, symObjAddr: 0x464C, symBinAddr: 0x100008304, symSize: 0x4C }
  - { offset: 0xF0FB, size: 0x8, addend: 0x0, symName: __ZNSt3__19allocatorINS_6vectorIiNS0_IiEEEEE9constructB8ne180100IS3_JRKS3_EEEvPT_DpOT0_, symObjAddr: 0x4698, symBinAddr: 0x100008350, symSize: 0x30 }
  - { offset: 0xF14F, size: 0x8, addend: 0x0, symName: __ZNSt3__16vectorIiNS_9allocatorIiEEEC1ERKS3_, symObjAddr: 0x46C8, symBinAddr: 0x100008380, symSize: 0x34 }
  - { offset: 0xF188, size: 0x8, addend: 0x0, symName: __ZNSt3__16vectorIiNS_9allocatorIiEEEC2ERKS3_, symObjAddr: 0x46FC, symBinAddr: 0x1000083B4, symSize: 0x94 }
  - { offset: 0xF1C2, size: 0x8, addend: 0x0, symName: __ZNSt3__116allocator_traitsINS_9allocatorIiEEE37select_on_container_copy_constructionB8ne180100IS2_vvEES2_RKS2_, symObjAddr: 0x4790, symBinAddr: 0x100008448, symSize: 0x10 }
  - { offset: 0xF1F5, size: 0x8, addend: 0x0, symName: __ZNSt3__117__compressed_pairIPiNS_9allocatorIiEEEC1B8ne180100IDnS3_EEOT_OT0_, symObjAddr: 0x47A0, symBinAddr: 0x100008458, symSize: 0x3C }
  - { offset: 0xF24C, size: 0x8, addend: 0x0, symName: __ZNSt3__16vectorIiNS_9allocatorIiEEE16__init_with_sizeB8ne180100IPiS5_EEvT_T0_m, symObjAddr: 0x47DC, symBinAddr: 0x100008494, symSize: 0xC0 }
  - { offset: 0xF2BF, size: 0x8, addend: 0x0, symName: __ZNKSt3__16vectorIiNS_9allocatorIiEEE4sizeB8ne180100Ev, symObjAddr: 0x489C, symBinAddr: 0x100008554, symSize: 0x28 }
  - { offset: 0xF2E3, size: 0x8, addend: 0x0, symName: __ZNSt3__117__compressed_pairIPiNS_9allocatorIiEEEC2B8ne180100IDnS3_EEOT_OT0_, symObjAddr: 0x48C4, symBinAddr: 0x10000857C, symSize: 0x44 }
  - { offset: 0xF33A, size: 0x8, addend: 0x0, symName: __ZNSt3__122__compressed_pair_elemINS_9allocatorIiEELi1ELb1EEC2B8ne180100IS2_vEEOT_, symObjAddr: 0x4908, symBinAddr: 0x1000085C0, symSize: 0x18 }
  - { offset: 0xF37A, size: 0x8, addend: 0x0, symName: __ZNSt3__16vectorIiNS_9allocatorIiEEE18__construct_at_endIPiS5_EEvT_T0_m, symObjAddr: 0x4920, symBinAddr: 0x1000085D8, symSize: 0x94 }
  - { offset: 0xF407, size: 0x8, addend: 0x0, symName: __ZNSt3__14pairIPiS1_EC1B8ne180100ERKS1_S4_, symObjAddr: 0x4C3C, symBinAddr: 0x1000088F4, symSize: 0x3C }
  - { offset: 0xF44C, size: 0x8, addend: 0x0, symName: __ZNSt3__14pairIPiS1_EC2B8ne180100ERKS1_S4_, symObjAddr: 0x4C78, symBinAddr: 0x100008930, symSize: 0x34 }
  - { offset: 0xF490, size: 0x8, addend: 0x0, symName: __ZNSt3__129_AllocatorDestroyRangeReverseINS_9allocatorIiEEPiEC1B8ne180100ERS2_RS3_S6_, symObjAddr: 0x4CF8, symBinAddr: 0x1000089B0, symSize: 0x44 }
  - { offset: 0xF4E6, size: 0x8, addend: 0x0, symName: __ZNSt3__116allocator_traitsINS_9allocatorIiEEE9constructB8ne180100IiJRiEvEEvRS2_PT_DpOT0_, symObjAddr: 0x4D3C, symBinAddr: 0x1000089F4, symSize: 0x34 }
  - { offset: 0xF53D, size: 0x8, addend: 0x0, symName: __ZNSt3__128__exception_guard_exceptionsINS_29_AllocatorDestroyRangeReverseINS_9allocatorIiEEPiEEE10__completeB8ne180100Ev, symObjAddr: 0x4D70, symBinAddr: 0x100008A28, symSize: 0x1C }
  - { offset: 0xF561, size: 0x8, addend: 0x0, symName: __ZNSt3__128__exception_guard_exceptionsINS_29_AllocatorDestroyRangeReverseINS_9allocatorIiEEPiEEED1B8ne180100Ev, symObjAddr: 0x4D8C, symBinAddr: 0x100008A44, symSize: 0x2C }
  - { offset: 0xF589, size: 0x8, addend: 0x0, symName: __ZNSt3__128__exception_guard_exceptionsINS_29_AllocatorDestroyRangeReverseINS_9allocatorIiEEPiEEEC1B8ne180100ES5_, symObjAddr: 0x4DB8, symBinAddr: 0x100008A70, symSize: 0x34 }
  - { offset: 0xF5C1, size: 0x8, addend: 0x0, symName: __ZNSt3__128__exception_guard_exceptionsINS_29_AllocatorDestroyRangeReverseINS_9allocatorIiEEPiEEEC2B8ne180100ES5_, symObjAddr: 0x4DEC, symBinAddr: 0x100008AA4, symSize: 0x30 }
  - { offset: 0xF5F9, size: 0x8, addend: 0x0, symName: __ZNSt3__129_AllocatorDestroyRangeReverseINS_9allocatorIiEEPiEC2B8ne180100ERS2_RS3_S6_, symObjAddr: 0x4E1C, symBinAddr: 0x100008AD4, symSize: 0x38 }
  - { offset: 0xF64F, size: 0x8, addend: 0x0, symName: __ZNSt3__19allocatorIiE9constructB8ne180100IiJRiEEEvPT_DpOT0_, symObjAddr: 0x4E54, symBinAddr: 0x100008B0C, symSize: 0x28 }
  - { offset: 0xF6A3, size: 0x8, addend: 0x0, symName: __ZNSt3__128__exception_guard_exceptionsINS_29_AllocatorDestroyRangeReverseINS_9allocatorIiEEPiEEED2B8ne180100Ev, symObjAddr: 0x4E7C, symBinAddr: 0x100008B34, symSize: 0x48 }
  - { offset: 0xF6CC, size: 0x8, addend: 0x0, symName: __ZNKSt3__129_AllocatorDestroyRangeReverseINS_9allocatorIiEEPiEclB8ne180100Ev, symObjAddr: 0x4EC4, symBinAddr: 0x100008B7C, symSize: 0x68 }
  - { offset: 0xF6F0, size: 0x8, addend: 0x0, symName: __ZNSt3__116reverse_iteratorIPiEC1B8ne180100ES1_, symObjAddr: 0x4F9C, symBinAddr: 0x100008C54, symSize: 0x34 }
  - { offset: 0xF727, size: 0x8, addend: 0x0, symName: __ZNSt3__116reverse_iteratorIPiEppB8ne180100Ev, symObjAddr: 0x503C, symBinAddr: 0x100008CF4, symSize: 0x20 }
  - { offset: 0xF74C, size: 0x8, addend: 0x0, symName: __ZNKSt3__116reverse_iteratorIPiE4baseB8ne180100Ev, symObjAddr: 0x505C, symBinAddr: 0x100008D14, symSize: 0x18 }
  - { offset: 0xF776, size: 0x8, addend: 0x0, symName: __ZNSt3__119__to_address_helperINS_16reverse_iteratorIPiEEvE6__callB8ne180100ERKS3_, symObjAddr: 0x5074, symBinAddr: 0x100008D2C, symSize: 0x4C }
  - { offset: 0xF799, size: 0x8, addend: 0x0, symName: __ZNKSt3__116reverse_iteratorIPiEptB8ne180100Ev, symObjAddr: 0x50C0, symBinAddr: 0x100008D78, symSize: 0x24 }
  - { offset: 0xF7BE, size: 0x8, addend: 0x0, symName: __ZNKSt3__116reverse_iteratorIPiEdeB8ne180100Ev, symObjAddr: 0x50E4, symBinAddr: 0x100008D9C, symSize: 0x28 }
  - { offset: 0xF7F1, size: 0x8, addend: 0x0, symName: __ZNSt3__116reverse_iteratorIPiEC2B8ne180100ES1_, symObjAddr: 0x510C, symBinAddr: 0x100008DC4, symSize: 0x28 }
  - { offset: 0xF828, size: 0x8, addend: 0x0, symName: __ZNSt3__118__unwrap_iter_implIPiLb1EE8__unwrapB8ne180100ES1_, symObjAddr: 0x5134, symBinAddr: 0x100008DEC, symSize: 0x24 }
  - { offset: 0xF84B, size: 0x8, addend: 0x0, symName: __ZNSt3__118__unwrap_iter_implIPiLb1EE8__rewrapB8ne180100ES1_S1_, symObjAddr: 0x5158, symBinAddr: 0x100008E10, symSize: 0x50 }
  - { offset: 0xF87C, size: 0x8, addend: 0x0, symName: __ZNSt3__16vectorINS0_IiNS_9allocatorIiEEEENS1_IS3_EEE21_ConstructTransactionD2B8ne180100Ev, symObjAddr: 0x51A8, symBinAddr: 0x100008E60, symSize: 0x20 }
  - { offset: 0xF8A4, size: 0x8, addend: 0x0, symName: __ZNSt3__128__exception_guard_exceptionsINS_6vectorINS1_IiNS_9allocatorIiEEEENS2_IS4_EEE16__destroy_vectorEED2B8ne180100Ev, symObjAddr: 0x51C8, symBinAddr: 0x100008E80, symSize: 0x48 }
  - { offset: 0xF8CD, size: 0x8, addend: 0x0, symName: __ZNSt3__16vectorINS0_IiNS_9allocatorIiEEEENS1_IS3_EEE16__destroy_vectorclB8ne180100Ev, symObjAddr: 0x5210, symBinAddr: 0x100008EC8, symSize: 0x90 }
  - { offset: 0xF8F2, size: 0x8, addend: 0x0, symName: __ZNSt3__16vectorINS0_IiNS_9allocatorIiEEEENS1_IS3_EEE7__clearB8ne180100Ev, symObjAddr: 0x52A0, symBinAddr: 0x100008F58, symSize: 0x28 }
  - { offset: 0xF917, size: 0x8, addend: 0x0, symName: __ZNKSt3__16vectorINS0_IiNS_9allocatorIiEEEENS1_IS3_EEE17__annotate_deleteB8ne180100Ev, symObjAddr: 0x52C8, symBinAddr: 0x100008F80, symSize: 0x10 }
  - { offset: 0xF93C, size: 0x8, addend: 0x0, symName: __ZNSt3__116allocator_traitsINS_9allocatorINS_6vectorIiNS1_IiEEEEEEE10deallocateB8ne180100ERS5_PS4_m, symObjAddr: 0x52D8, symBinAddr: 0x100008F90, symSize: 0x34 }
  - { offset: 0xF97E, size: 0x8, addend: 0x0, symName: __ZNKSt3__16vectorINS0_IiNS_9allocatorIiEEEENS1_IS3_EEE8capacityB8ne180100Ev, symObjAddr: 0x530C, symBinAddr: 0x100008FC4, symSize: 0x40 }
  - { offset: 0xF9A3, size: 0x8, addend: 0x0, symName: __ZNSt3__16vectorINS0_IiNS_9allocatorIiEEEENS1_IS3_EEE22__base_destruct_at_endB8ne180100EPS3_, symObjAddr: 0x534C, symBinAddr: 0x100009004, symSize: 0xA0 }
  - { offset: 0xF9E6, size: 0x8, addend: 0x0, symName: __ZNSt3__116allocator_traitsINS_9allocatorINS_6vectorIiNS1_IiEEEEEEE7destroyB8ne180100IS4_vEEvRS5_PT_, symObjAddr: 0x53EC, symBinAddr: 0x1000090A4, symSize: 0x2C }
  - { offset: 0xFA23, size: 0x8, addend: 0x0, symName: __ZNSt3__19allocatorINS_6vectorIiNS0_IiEEEEE7destroyB8ne180100EPS3_, symObjAddr: 0x5418, symBinAddr: 0x1000090D0, symSize: 0x28 }
  - { offset: 0xFA56, size: 0x8, addend: 0x0, symName: __ZNSt3__19allocatorINS_6vectorIiNS0_IiEEEEE10deallocateB8ne180100EPS3_m, symObjAddr: 0x5440, symBinAddr: 0x1000090F8, symSize: 0x74 }
  - { offset: 0xFA97, size: 0x8, addend: 0x0, symName: __ZNKSt3__16vectorINS0_IiNS_9allocatorIiEEEENS1_IS3_EEE9__end_capB8ne180100Ev, symObjAddr: 0x54B4, symBinAddr: 0x10000916C, symSize: 0x28 }
  - { offset: 0xFABC, size: 0x8, addend: 0x0, symName: __ZNKSt3__117__compressed_pairIPNS_6vectorIiNS_9allocatorIiEEEENS2_IS4_EEE5firstB8ne180100Ev, symObjAddr: 0x54DC, symBinAddr: 0x100009194, symSize: 0x24 }
  - { offset: 0xFAE1, size: 0x8, addend: 0x0, symName: __ZNKSt3__122__compressed_pair_elemIPNS_6vectorIiNS_9allocatorIiEEEELi0ELb0EE5__getB8ne180100Ev, symObjAddr: 0x5500, symBinAddr: 0x1000091B8, symSize: 0x14 }
  - { offset: 0xFB05, size: 0x8, addend: 0x0, symName: __ZNSt3__16vectorI5ChordNS_9allocatorIS1_EEED2B8ne180100Ev, symObjAddr: 0x5514, symBinAddr: 0x1000091CC, symSize: 0x3C }
  - { offset: 0xFB2D, size: 0x8, addend: 0x0, symName: __ZNSt3__16vectorINS0_IiNS_9allocatorIiEEEENS1_IS3_EEED2B8ne180100Ev, symObjAddr: 0x5550, symBinAddr: 0x100009208, symSize: 0x3C }
  - { offset: 0xFB56, size: 0x8, addend: 0x0, symName: __ZNSt3__111char_traitsIcE6lengthB8ne180100EPKc, symObjAddr: 0x5780, symBinAddr: 0x100009438, symSize: 0x48 }
  - { offset: 0xFB97, size: 0x8, addend: 0x0, symName: __ZNKSt3__113basic_ostreamIcNS_11char_traitsIcEEE6sentrycvbB8ne180100Ev, symObjAddr: 0x57C8, symBinAddr: 0x100009480, symSize: 0x1C }
  - { offset: 0xFBBB, size: 0x8, addend: 0x0, symName: __ZNSt3__119ostreambuf_iteratorIcNS_11char_traitsIcEEEC1B8ne180100ERNS_13basic_ostreamIcS2_EE, symObjAddr: 0x5A2C, symBinAddr: 0x1000096E4, symSize: 0x34 }
  - { offset: 0xFBF2, size: 0x8, addend: 0x0, symName: __ZNKSt3__18ios_base5flagsB8ne180100Ev, symObjAddr: 0x5A60, symBinAddr: 0x100009718, symSize: 0x18 }
  - { offset: 0xFC18, size: 0x8, addend: 0x0, symName: __ZNKSt3__19basic_iosIcNS_11char_traitsIcEEE4fillB8ne180100Ev, symObjAddr: 0x5A78, symBinAddr: 0x100009730, symSize: 0x64 }
  - { offset: 0xFC3F, size: 0x8, addend: 0x0, symName: __ZNKSt3__119ostreambuf_iteratorIcNS_11char_traitsIcEEE6failedB8ne180100Ev, symObjAddr: 0x5ADC, symBinAddr: 0x100009794, symSize: 0x24 }
  - { offset: 0xFC64, size: 0x8, addend: 0x0, symName: __ZNSt3__19basic_iosIcNS_11char_traitsIcEEE8setstateB8ne180100Ej, symObjAddr: 0x5B00, symBinAddr: 0x1000097B8, symSize: 0x2C }
  - { offset: 0xFC98, size: 0x8, addend: 0x0, symName: __ZNKSt3__18ios_base5widthB8ne180100Ev, symObjAddr: 0x5B2C, symBinAddr: 0x1000097E4, symSize: 0x18 }
  - { offset: 0xFCBF, size: 0x8, addend: 0x0, symName: __ZNSt3__115basic_streambufIcNS_11char_traitsIcEEE5sputnB8ne180100EPKcl, symObjAddr: 0x5B44, symBinAddr: 0x1000097FC, symSize: 0x3C }
  - { offset: 0xFCFF, size: 0x8, addend: 0x0, symName: __ZNSt3__112basic_stringIcNS_11char_traitsIcEENS_9allocatorIcEEEC1B8ne180100Emc, symObjAddr: 0x5B80, symBinAddr: 0x100009838, symSize: 0x3C }
  - { offset: 0xFD46, size: 0x8, addend: 0x0, symName: __ZNKSt3__112basic_stringIcNS_11char_traitsIcEENS_9allocatorIcEEE4dataB8ne180100Ev, symObjAddr: 0x5BBC, symBinAddr: 0x100009874, symSize: 0x28 }
  - { offset: 0xFD6B, size: 0x8, addend: 0x0, symName: __ZNSt3__18ios_base5widthB8ne180100El, symObjAddr: 0x5BE4, symBinAddr: 0x10000989C, symSize: 0x2C }
  - { offset: 0xFDAF, size: 0x8, addend: 0x0, symName: __ZNSt3__112basic_stringIcNS_11char_traitsIcEENS_9allocatorIcEEEC2B8ne180100Emc, symObjAddr: 0x5C10, symBinAddr: 0x1000098C8, symSize: 0x4C }
  - { offset: 0xFDF5, size: 0x8, addend: 0x0, symName: __ZNSt3__117__compressed_pairINS_12basic_stringIcNS_11char_traitsIcEENS_9allocatorIcEEE5__repES5_EC1B8ne180100INS_18__default_init_tagESA_EEOT_OT0_, symObjAddr: 0x5C5C, symBinAddr: 0x100009914, symSize: 0x3C }
  - { offset: 0xFE4B, size: 0x8, addend: 0x0, symName: __ZNSt3__117__compressed_pairINS_12basic_stringIcNS_11char_traitsIcEENS_9allocatorIcEEE5__repES5_EC2B8ne180100INS_18__default_init_tagESA_EEOT_OT0_, symObjAddr: 0x5C98, symBinAddr: 0x100009950, symSize: 0x3C }
  - { offset: 0xFEA2, size: 0x8, addend: 0x0, symName: __ZNSt3__122__compressed_pair_elemINS_12basic_stringIcNS_11char_traitsIcEENS_9allocatorIcEEE5__repELi0ELb0EEC2B8ne180100ENS_18__default_init_tagE, symObjAddr: 0x5CD4, symBinAddr: 0x10000998C, symSize: 0x14 }
  - { offset: 0xFED5, size: 0x8, addend: 0x0, symName: __ZNSt3__122__compressed_pair_elemINS_9allocatorIcEELi1ELb1EEC2B8ne180100ENS_18__default_init_tagE, symObjAddr: 0x5CE8, symBinAddr: 0x1000099A0, symSize: 0x2C }
  - { offset: 0xFF08, size: 0x8, addend: 0x0, symName: __ZNSt3__19allocatorIcEC2B8ne180100Ev, symObjAddr: 0x5D14, symBinAddr: 0x1000099CC, symSize: 0x2C }
  - { offset: 0xFF31, size: 0x8, addend: 0x0, symName: __ZNSt3__116__non_trivial_ifILb1ENS_9allocatorIcEEEC2B8ne180100Ev, symObjAddr: 0x5D40, symBinAddr: 0x1000099F8, symSize: 0x14 }
  - { offset: 0xFF5A, size: 0x8, addend: 0x0, symName: __ZNKSt3__112basic_stringIcNS_11char_traitsIcEENS_9allocatorIcEEE13__get_pointerB8ne180100Ev, symObjAddr: 0x5D68, symBinAddr: 0x100009A20, symSize: 0x54 }
  - { offset: 0xFF7F, size: 0x8, addend: 0x0, symName: __ZNKSt3__112basic_stringIcNS_11char_traitsIcEENS_9allocatorIcEEE9__is_longB8ne180100Ev, symObjAddr: 0x5DBC, symBinAddr: 0x100009A74, symSize: 0x94 }
  - { offset: 0xFFA4, size: 0x8, addend: 0x0, symName: __ZNKSt3__112basic_stringIcNS_11char_traitsIcEENS_9allocatorIcEEE18__get_long_pointerB8ne180100Ev, symObjAddr: 0x5E50, symBinAddr: 0x100009B08, symSize: 0x28 }
  - { offset: 0xFFC9, size: 0x8, addend: 0x0, symName: __ZNKSt3__112basic_stringIcNS_11char_traitsIcEENS_9allocatorIcEEE19__get_short_pointerB8ne180100Ev, symObjAddr: 0x5E78, symBinAddr: 0x100009B30, symSize: 0x28 }
  - { offset: 0xFFEE, size: 0x8, addend: 0x0, symName: __ZNKSt3__117__compressed_pairINS_12basic_stringIcNS_11char_traitsIcEENS_9allocatorIcEEE5__repES5_E5firstB8ne180100Ev, symObjAddr: 0x5EA0, symBinAddr: 0x100009B58, symSize: 0x24 }
  - { offset: 0x10013, size: 0x8, addend: 0x0, symName: __ZNKSt3__122__compressed_pair_elemINS_12basic_stringIcNS_11char_traitsIcEENS_9allocatorIcEEE5__repELi0ELb0EE5__getB8ne180100Ev, symObjAddr: 0x5EC4, symBinAddr: 0x100009B7C, symSize: 0x14 }
  - { offset: 0x10038, size: 0x8, addend: 0x0, symName: __ZNSt3__114pointer_traitsIPKcE10pointer_toB8ne180100ERS1_, symObjAddr: 0x5ED8, symBinAddr: 0x100009B90, symSize: 0x14 }
  - { offset: 0x1005A, size: 0x8, addend: 0x0, symName: __ZNSt3__119ostreambuf_iteratorIcNS_11char_traitsIcEEEC2B8ne180100ERNS_13basic_ostreamIcS2_EE, symObjAddr: 0x5EEC, symBinAddr: 0x100009BA4, symSize: 0x68 }
  - { offset: 0x10090, size: 0x8, addend: 0x0, symName: __ZNKSt3__19basic_iosIcNS_11char_traitsIcEEE5rdbufB8ne180100Ev, symObjAddr: 0x5F54, symBinAddr: 0x100009C0C, symSize: 0x24 }
  - { offset: 0x100B7, size: 0x8, addend: 0x0, symName: __ZNKSt3__18ios_base5rdbufB8ne180100Ev, symObjAddr: 0x5F78, symBinAddr: 0x100009C30, symSize: 0x18 }
  - { offset: 0x100DC, size: 0x8, addend: 0x0, symName: __ZNSt3__111char_traitsIcE11eq_int_typeB8ne180100Eii, symObjAddr: 0x5F90, symBinAddr: 0x100009C48, symSize: 0x28 }
  - { offset: 0x1010F, size: 0x8, addend: 0x0, symName: __ZNSt3__111char_traitsIcE3eofB8ne180100Ev, symObjAddr: 0x5FB8, symBinAddr: 0x100009C70, symSize: 0x8 }
  - { offset: 0x10122, size: 0x8, addend: 0x0, symName: __ZNKSt3__19basic_iosIcNS_11char_traitsIcEEE5widenB8ne180100Ec, symObjAddr: 0x5FC0, symBinAddr: 0x100009C78, symSize: 0x8C }
  - { offset: 0x1019A, size: 0x8, addend: 0x0, symName: __ZNKSt3__15ctypeIcE5widenB8ne180100Ec, symObjAddr: 0x6078, symBinAddr: 0x100009D30, symSize: 0x38 }
  - { offset: 0x101CD, size: 0x8, addend: 0x0, symName: __ZNSt3__18ios_base8setstateB8ne180100Ej, symObjAddr: 0x60B0, symBinAddr: 0x100009D68, symSize: 0x34 }
  - { offset: 0x10202, size: 0x8, addend: 0x0, symName: __ZNSt3__19basic_iosIcNS_11char_traitsIcEEEC2B8ne180100Ev, symObjAddr: 0x6108, symBinAddr: 0x100009DC0, symSize: 0x3C }
  - { offset: 0x1022A, size: 0x8, addend: 0x0, symName: __ZNSt3__113basic_istreamIcNS_11char_traitsIcEEEC2B8ne180100EPNS_15basic_streambufIcS2_EE, symObjAddr: 0x6144, symBinAddr: 0x100009DFC, symSize: 0x64 }
  - { offset: 0x1026D, size: 0x8, addend: 0x0, symName: __ZNSt3__18ios_baseC2B8ne180100Ev, symObjAddr: 0x61A8, symBinAddr: 0x100009E60, symSize: 0x24 }
  - { offset: 0x10295, size: 0x8, addend: 0x0, symName: __ZNSt3__19basic_iosIcNS_11char_traitsIcEEE4initB8ne180100EPNS_15basic_streambufIcS2_EE, symObjAddr: 0x61CC, symBinAddr: 0x100009E84, symSize: 0x44 }
  - { offset: 0x102CB, size: 0x8, addend: 0x0, symName: __ZNKSt3__19basic_iosIcNS_11char_traitsIcEEE4failB8ne180100Ev, symObjAddr: 0x6210, symBinAddr: 0x100009EC8, symSize: 0x28 }
  - { offset: 0x102F0, size: 0x8, addend: 0x0, symName: __ZNKSt3__18ios_base4failB8ne180100Ev, symObjAddr: 0x6238, symBinAddr: 0x100009EF0, symSize: 0x28 }
  - { offset: 0x10316, size: 0x8, addend: 0x0, symName: __ZNSt3__113basic_ostreamIcNS_11char_traitsIcEEEC2B8ne180100EPNS_15basic_streambufIcS2_EE, symObjAddr: 0x6260, symBinAddr: 0x100009F18, symSize: 0x60 }
  - { offset: 0x10358, size: 0x8, addend: 0x0, symName: __ZNSt3__16vectorI5ChordNS_9allocatorIS1_EEEC2B8ne180100Ev, symObjAddr: 0x62C0, symBinAddr: 0x100009F78, symSize: 0x44 }
  - { offset: 0x10380, size: 0x8, addend: 0x0, symName: __ZNSt3__117__compressed_pairIP5ChordNS_9allocatorIS1_EEEC1B8ne180100IDnNS_18__default_init_tagEEEOT_OT0_, symObjAddr: 0x6304, symBinAddr: 0x100009FBC, symSize: 0x3C }
  - { offset: 0x103D6, size: 0x8, addend: 0x0, symName: __ZNSt3__117__compressed_pairIP5ChordNS_9allocatorIS1_EEEC2B8ne180100IDnNS_18__default_init_tagEEEOT_OT0_, symObjAddr: 0x6340, symBinAddr: 0x100009FF8, symSize: 0x40 }
  - { offset: 0x1042C, size: 0x8, addend: 0x0, symName: __ZNSt3__122__compressed_pair_elemINS_9allocatorI5ChordEELi1ELb1EEC2B8ne180100ENS_18__default_init_tagE, symObjAddr: 0x6380, symBinAddr: 0x10000A038, symSize: 0x2C }
  - { offset: 0x1045F, size: 0x8, addend: 0x0, symName: __ZNSt3__19allocatorI5ChordEC2B8ne180100Ev, symObjAddr: 0x63AC, symBinAddr: 0x10000A064, symSize: 0x2C }
  - { offset: 0x10488, size: 0x8, addend: 0x0, symName: __ZNSt3__116__non_trivial_ifILb1ENS_9allocatorI5ChordEEEC2B8ne180100Ev, symObjAddr: 0x63D8, symBinAddr: 0x10000A090, symSize: 0x14 }
  - { offset: 0x104B1, size: 0x8, addend: 0x0, symName: __ZNSt3__16vectorI5ChordNS_9allocatorIS1_EEE22__construct_one_at_endB8ne180100IJRKS1_EEEvDpOT_, symObjAddr: 0x63EC, symBinAddr: 0x10000A0A4, symSize: 0x98 }
  - { offset: 0x104FE, size: 0x8, addend: 0x0, symName: __ZNSt3__16vectorI5ChordNS_9allocatorIS1_EEE21__push_back_slow_pathIRKS1_EEPS1_OT_, symObjAddr: 0x6484, symBinAddr: 0x10000A13C, symSize: 0xF0 }
  - { offset: 0x1055B, size: 0x8, addend: 0x0, symName: __ZNSt3__116allocator_traitsINS_9allocatorI5ChordEEE9constructB8ne180100IS2_JRKS2_EvEEvRS3_PT_DpOT0_, symObjAddr: 0x6574, symBinAddr: 0x10000A22C, symSize: 0x34 }
  - { offset: 0x105B2, size: 0x8, addend: 0x0, symName: __ZNSt3__19allocatorI5ChordE9constructB8ne180100IS1_JRKS1_EEEvPT_DpOT0_, symObjAddr: 0x65A8, symBinAddr: 0x10000A260, symSize: 0x28 }
  - { offset: 0x10606, size: 0x8, addend: 0x0, symName: __ZNKSt3__16vectorI5ChordNS_9allocatorIS1_EEE11__recommendB8ne180100Em, symObjAddr: 0x65D0, symBinAddr: 0x10000A288, symSize: 0xB4 }
  - { offset: 0x10659, size: 0x8, addend: 0x0, symName: __ZNSt3__114__split_bufferI5ChordRNS_9allocatorIS1_EEEC1EmmS4_, symObjAddr: 0x6684, symBinAddr: 0x10000A33C, symSize: 0x44 }
  - { offset: 0x106AD, size: 0x8, addend: 0x0, symName: __ZNSt3__114__split_bufferI5ChordRNS_9allocatorIS1_EEED1Ev, symObjAddr: 0x67D8, symBinAddr: 0x10000A490, symSize: 0x2C }
  - { offset: 0x106D7, size: 0x8, addend: 0x0, symName: __ZNSt3__114__split_bufferI5ChordRNS_9allocatorIS1_EEEC2EmmS4_, symObjAddr: 0x6884, symBinAddr: 0x10000A53C, symSize: 0xD4 }
  - { offset: 0x10748, size: 0x8, addend: 0x0, symName: __ZNSt3__117__compressed_pairIP5ChordRNS_9allocatorIS1_EEEC1B8ne180100IDnS5_EEOT_OT0_, symObjAddr: 0x6958, symBinAddr: 0x10000A610, symSize: 0x3C }
  - { offset: 0x1079F, size: 0x8, addend: 0x0, symName: __ZNSt3__114__split_bufferI5ChordRNS_9allocatorIS1_EEE7__allocB8ne180100Ev, symObjAddr: 0x6994, symBinAddr: 0x10000A64C, symSize: 0x28 }
  - { offset: 0x107C4, size: 0x8, addend: 0x0, symName: __ZNSt3__114__split_bufferI5ChordRNS_9allocatorIS1_EEE9__end_capB8ne180100Ev, symObjAddr: 0x69BC, symBinAddr: 0x10000A674, symSize: 0x28 }
  - { offset: 0x107E8, size: 0x8, addend: 0x0, symName: __ZNSt3__117__compressed_pairIP5ChordRNS_9allocatorIS1_EEEC2B8ne180100IDnS5_EEOT_OT0_, symObjAddr: 0x69E4, symBinAddr: 0x10000A69C, symSize: 0x48 }
  - { offset: 0x1083F, size: 0x8, addend: 0x0, symName: __ZNSt3__122__compressed_pair_elemIRNS_9allocatorI5ChordEELi1ELb0EEC2B8ne180100IS4_vEEOT_, symObjAddr: 0x6A2C, symBinAddr: 0x10000A6E4, symSize: 0x20 }
  - { offset: 0x10880, size: 0x8, addend: 0x0, symName: __ZNSt3__117__compressed_pairIP5ChordRNS_9allocatorIS1_EEE6secondB8ne180100Ev, symObjAddr: 0x6A4C, symBinAddr: 0x10000A704, symSize: 0x28 }
  - { offset: 0x108A5, size: 0x8, addend: 0x0, symName: __ZNSt3__122__compressed_pair_elemIRNS_9allocatorI5ChordEELi1ELb0EE5__getB8ne180100Ev, symObjAddr: 0x6A74, symBinAddr: 0x10000A72C, symSize: 0x18 }
  - { offset: 0x108CA, size: 0x8, addend: 0x0, symName: __ZNSt3__117__compressed_pairIP5ChordRNS_9allocatorIS1_EEE5firstB8ne180100Ev, symObjAddr: 0x6A8C, symBinAddr: 0x10000A744, symSize: 0x24 }
  - { offset: 0x10912, size: 0x8, addend: 0x0, symName: __ZNKSt3__111__move_loopINS_17_ClassicAlgPolicyEEclB8ne180100INS_16reverse_iteratorIP5ChordEES7_S7_EENS_4pairIT_T1_EES9_T0_SA_, symObjAddr: 0x6EE8, symBinAddr: 0x10000ABA0, symSize: 0xA0 }
  - { offset: 0x10981, size: 0x8, addend: 0x0, symName: __ZNSt3__18_IterOpsINS_17_ClassicAlgPolicyEE11__iter_moveB8ne180100IRNS_16reverse_iteratorIP5ChordEELi0EEEDTclsr3stdE4movedeclsr3stdE7declvalIRT_EEEEOS9_, symObjAddr: 0x70E8, symBinAddr: 0x10000ADA0, symSize: 0x28 }
  - { offset: 0x109B3, size: 0x8, addend: 0x0, symName: __ZNSt3__18_IterOpsINS_17_ClassicAlgPolicyEE25__validate_iter_referenceB8ne180100IRNS_16reverse_iteratorIP5ChordEEEEvv, symObjAddr: 0x7110, symBinAddr: 0x10000ADC8, symSize: 0x4 }
  - { offset: 0x109D1, size: 0x8, addend: 0x0, symName: __ZNSt3__118__unwrap_iter_implINS_16reverse_iteratorIP5ChordEELb0EE8__unwrapB8ne180100ES4_, symObjAddr: 0x7114, symBinAddr: 0x10000ADCC, symSize: 0x24 }
  - { offset: 0x109F3, size: 0x8, addend: 0x0, symName: __ZNSt3__14pairINS_16reverse_iteratorIP5ChordEES4_EC1B8ne180100ERKS4_S7_, symObjAddr: 0x7138, symBinAddr: 0x10000ADF0, symSize: 0x3C }
  - { offset: 0x10A38, size: 0x8, addend: 0x0, symName: __ZNSt3__14pairINS_16reverse_iteratorIP5ChordEES4_EC2B8ne180100ERKS4_S7_, symObjAddr: 0x7174, symBinAddr: 0x10000AE2C, symSize: 0x34 }
  - { offset: 0x10A7D, size: 0x8, addend: 0x0, symName: __ZNSt3__118__unwrap_iter_implINS_16reverse_iteratorIP5ChordEELb0EE8__rewrapB8ne180100ES4_S4_, symObjAddr: 0x71A8, symBinAddr: 0x10000AE60, symSize: 0x2C }
  - { offset: 0x10AAA, size: 0x8, addend: 0x0, symName: __ZNSt3__114__split_bufferI5ChordRNS_9allocatorIS1_EEED2Ev, symObjAddr: 0x71D4, symBinAddr: 0x10000AE8C, symSize: 0x80 }
  - { offset: 0x10AD5, size: 0x8, addend: 0x0, symName: __ZNSt3__114__split_bufferI5ChordRNS_9allocatorIS1_EEE5clearB8ne180100Ev, symObjAddr: 0x7254, symBinAddr: 0x10000AF0C, symSize: 0x28 }
  - { offset: 0x10AFA, size: 0x8, addend: 0x0, symName: __ZNKSt3__114__split_bufferI5ChordRNS_9allocatorIS1_EEE8capacityB8ne180100Ev, symObjAddr: 0x727C, symBinAddr: 0x10000AF34, symSize: 0x40 }
  - { offset: 0x10B1F, size: 0x8, addend: 0x0, symName: __ZNSt3__114__split_bufferI5ChordRNS_9allocatorIS1_EEE17__destruct_at_endB8ne180100EPS1_, symObjAddr: 0x72BC, symBinAddr: 0x10000AF74, symSize: 0x2C }
  - { offset: 0x10B51, size: 0x8, addend: 0x0, symName: __ZNSt3__114__split_bufferI5ChordRNS_9allocatorIS1_EEE17__destruct_at_endB8ne180100EPS1_NS_17integral_constantIbLb0EEE, symObjAddr: 0x72E8, symBinAddr: 0x10000AFA0, symSize: 0x94 }
  - { offset: 0x10B91, size: 0x8, addend: 0x0, symName: __ZNKSt3__114__split_bufferI5ChordRNS_9allocatorIS1_EEE9__end_capB8ne180100Ev, symObjAddr: 0x737C, symBinAddr: 0x10000B034, symSize: 0x28 }
  - { offset: 0x10BB6, size: 0x8, addend: 0x0, symName: __ZNKSt3__117__compressed_pairIP5ChordRNS_9allocatorIS1_EEE5firstB8ne180100Ev, symObjAddr: 0x73A4, symBinAddr: 0x10000B05C, symSize: 0x24 }
  - { offset: 0x10BDB, size: 0x8, addend: 0x0, symName: __ZNSt3__16vectorI5ChordNS_9allocatorIS1_EEE11__make_iterB8ne180100EPS1_, symObjAddr: 0x73C8, symBinAddr: 0x10000B080, symSize: 0x30 }
  - { offset: 0x10C0E, size: 0x8, addend: 0x0, symName: __ZNSt3__111__wrap_iterIP5ChordEC1B8ne180100ES2_, symObjAddr: 0x73F8, symBinAddr: 0x10000B0B0, symSize: 0x34 }
  - { offset: 0x10C45, size: 0x8, addend: 0x0, symName: __ZNSt3__111__wrap_iterIP5ChordEC2B8ne180100ES2_, symObjAddr: 0x742C, symBinAddr: 0x10000B0E4, symSize: 0x20 }
  - { offset: 0x10C7C, size: 0x8, addend: 0x0, symName: __ZNKSt3__111__wrap_iterIP5ChordE4baseB8ne180100Ev, symObjAddr: 0x7494, symBinAddr: 0x10000B14C, symSize: 0x18 }
...
